
Drone_CM4.elf:     file format elf32-littlearm

Sections:
Idx Name          Size      VMA       LMA       File off  Algn
  0 .isr_vector   00000298  08100000  08100000  00001000  2**0
                  CONTENTS, ALLOC, LOAD, READONLY, DATA
  1 .text         00004ce4  081002a0  081002a0  000012a0  2**4
                  CONTENTS, ALLOC, LOAD, READONLY, CODE
  2 .rodata       00000024  08104f84  08104f84  00005f84  2**0
                  CONTENTS, ALLOC, LOAD, READONLY, DATA
  3 .init_array   00000004  08104fa8  08104fa8  00005fa8  2**2
                  CONTENTS, ALLOC, LOAD, READONLY, DATA
  4 .fini_array   00000004  08104fac  08104fac  00005fac  2**2
                  CONTENTS, ALLOC, LOAD, READONLY, DATA
  5 .data         0000006c  10000000  08104fb0  00006000  2**2
                  CONTENTS, ALLOC, LOAD, DATA
  6 .bss          00000f64  1000006c  0810501c  0000606c  2**2
                  ALLOC
  7 ._user_heap_stack 00000600  10000fd0  0810501c  00006fd0  2**0
                  ALLOC
  8 .ARM.attributes 00000030  00000000  00000000  0000606c  2**0
                  CONTENTS, READONLY
  9 .comment      00000043  00000000  00000000  0000609c  2**0
                  CONTENTS, READONLY
 10 .debug_frame  0000069c  00000000  00000000  000060e0  2**2
                  CONTENTS, READONLY, DEBUGGING, OCTETS

Disassembly of section .text:

081002a0 <__do_global_dtors_aux>:
 81002a0:	b510      	push	{r4, lr}
 81002a2:	4c05      	ldr	r4, [pc, #20]	@ (81002b8 <__do_global_dtors_aux+0x18>)
 81002a4:	7823      	ldrb	r3, [r4, #0]
 81002a6:	b933      	cbnz	r3, 81002b6 <__do_global_dtors_aux+0x16>
 81002a8:	4b04      	ldr	r3, [pc, #16]	@ (81002bc <__do_global_dtors_aux+0x1c>)
 81002aa:	b113      	cbz	r3, 81002b2 <__do_global_dtors_aux+0x12>
 81002ac:	4804      	ldr	r0, [pc, #16]	@ (81002c0 <__do_global_dtors_aux+0x20>)
 81002ae:	f3af 8000 	nop.w
 81002b2:	2301      	movs	r3, #1
 81002b4:	7023      	strb	r3, [r4, #0]
 81002b6:	bd10      	pop	{r4, pc}
 81002b8:	1000006c 	.word	0x1000006c
 81002bc:	00000000 	.word	0x00000000
 81002c0:	08104f6c 	.word	0x08104f6c

081002c4 <frame_dummy>:
 81002c4:	b508      	push	{r3, lr}
 81002c6:	4b03      	ldr	r3, [pc, #12]	@ (81002d4 <frame_dummy+0x10>)
 81002c8:	b11b      	cbz	r3, 81002d2 <frame_dummy+0xe>
 81002ca:	4903      	ldr	r1, [pc, #12]	@ (81002d8 <frame_dummy+0x14>)
 81002cc:	4803      	ldr	r0, [pc, #12]	@ (81002dc <frame_dummy+0x18>)
 81002ce:	f3af 8000 	nop.w
 81002d2:	bd08      	pop	{r3, pc}
 81002d4:	00000000 	.word	0x00000000
 81002d8:	10000070 	.word	0x10000070
 81002dc:	08104f6c 	.word	0x08104f6c

081002e0 <SystemInit>:
 81002e0:	4b05      	ldr	r3, [pc, #20]	@ (81002f8 <SystemInit+0x18>)
 81002e2:	f8d3 2088 	ldr.w	r2, [r3, #136]	@ 0x88
 81002e6:	f442 0270 	orr.w	r2, r2, #15728640	@ 0xf00000
 81002ea:	f8c3 2088 	str.w	r2, [r3, #136]	@ 0x88
 81002ee:	691a      	ldr	r2, [r3, #16]
 81002f0:	f042 0210 	orr.w	r2, r2, #16
 81002f4:	611a      	str	r2, [r3, #16]
 81002f6:	4770      	bx	lr
 81002f8:	e000ed00 	.word	0xe000ed00

081002fc <ExitRun0Mode>:
 81002fc:	4b04      	ldr	r3, [pc, #16]	@ (8100310 <ExitRun0Mode+0x14>)
 81002fe:	68da      	ldr	r2, [r3, #12]
 8100300:	f022 0202 	bic.w	r2, r2, #2
 8100304:	60da      	str	r2, [r3, #12]
 8100306:	685a      	ldr	r2, [r3, #4]
 8100308:	0492      	lsls	r2, r2, #18
 810030a:	d5fc      	bpl.n	8100306 <ExitRun0Mode+0xa>
 810030c:	4770      	bx	lr
 810030e:	bf00      	nop
 8100310:	58024800 	.word	0x58024800

08100314 <__io_putchar>:
 8100314:	b507      	push	{r0, r1, r2, lr}
 8100316:	f04f 33ff 	mov.w	r3, #4294967295
 810031a:	9001      	str	r0, [sp, #4]
 810031c:	2201      	movs	r2, #1
 810031e:	a901      	add	r1, sp, #4
 8100320:	4803      	ldr	r0, [pc, #12]	@ (8100330 <__io_putchar+0x1c>)
 8100322:	f003 fdf1 	bl	8103f08 <HAL_UART_Transmit>
 8100326:	9801      	ldr	r0, [sp, #4]
 8100328:	b003      	add	sp, #12
 810032a:	f85d fb04 	ldr.w	pc, [sp], #4
 810032e:	bf00      	nop
 8100330:	1000057c 	.word	0x1000057c

08100334 <HAL_GPIO_EXTI_Callback>:
 8100334:	4770      	bx	lr
	...

08100338 <main>:
 8100338:	e92d 4880 	stmdb	sp!, {r7, fp, lr}
 810033c:	4dd2      	ldr	r5, [pc, #840]	@ (8100688 <main+0x350>)
 810033e:	f8d5 30e0 	ldr.w	r3, [r5, #224]	@ 0xe0
 8100342:	f043 7300 	orr.w	r3, r3, #33554432	@ 0x2000000
 8100346:	b0a3      	sub	sp, #140	@ 0x8c
 8100348:	f8c5 30e0 	str.w	r3, [r5, #224]	@ 0xe0
 810034c:	f8d5 30e0 	ldr.w	r3, [r5, #224]	@ 0xe0
 8100350:	f003 7300 	and.w	r3, r3, #33554432	@ 0x2000000
 8100354:	2001      	movs	r0, #1
 8100356:	9301      	str	r3, [sp, #4]
 8100358:	9b01      	ldr	r3, [sp, #4]
 810035a:	f001 fa65 	bl	8101828 <HAL_HSEM_ActivateNotification>
 810035e:	f001 fb2f 	bl	81019c0 <HAL_PWREx_ClearPendingEvent>
 8100362:	2201      	movs	r2, #1
 8100364:	2102      	movs	r1, #2
 8100366:	2000      	movs	r0, #0
 8100368:	f001 fae8 	bl	810193c <HAL_PWREx_EnterSTOPMode>
 810036c:	4bc7      	ldr	r3, [pc, #796]	@ (810068c <main+0x354>)
 810036e:	681b      	ldr	r3, [r3, #0]
 8100370:	f003 03f0 	and.w	r3, r3, #240	@ 0xf0
 8100374:	2b70      	cmp	r3, #112	@ 0x70
 8100376:	4bc6      	ldr	r3, [pc, #792]	@ (8100690 <main+0x358>)
 8100378:	bf0b      	itete	eq
 810037a:	f8d3 2104 	ldreq.w	r2, [r3, #260]	@ 0x104
 810037e:	f8d3 2114 	ldrne.w	r2, [r3, #276]	@ 0x114
 8100382:	f042 0201 	orreq.w	r2, r2, #1
 8100386:	f042 0201 	orrne.w	r2, r2, #1
 810038a:	bf0c      	ite	eq
 810038c:	f8c3 2104 	streq.w	r2, [r3, #260]	@ 0x104
 8100390:	f8c3 2114 	strne.w	r2, [r3, #276]	@ 0x114
 8100394:	2400      	movs	r4, #0
 8100396:	f000 ffbd 	bl	8101314 <HAL_Init>
 810039a:	9419      	str	r4, [sp, #100]	@ 0x64
 810039c:	f8d5 30e0 	ldr.w	r3, [r5, #224]	@ 0xe0
 81003a0:	48bc      	ldr	r0, [pc, #752]	@ (8100694 <main+0x35c>)
 81003a2:	f443 7380 	orr.w	r3, r3, #256	@ 0x100
 81003a6:	f8c5 30e0 	str.w	r3, [r5, #224]	@ 0xe0
 81003aa:	f8d5 30e0 	ldr.w	r3, [r5, #224]	@ 0xe0
 81003ae:	f403 7380 	and.w	r3, r3, #256	@ 0x100
 81003b2:	9302      	str	r3, [sp, #8]
 81003b4:	9b02      	ldr	r3, [sp, #8]
 81003b6:	f8d5 30e0 	ldr.w	r3, [r5, #224]	@ 0xe0
 81003ba:	f043 0302 	orr.w	r3, r3, #2
 81003be:	f8c5 30e0 	str.w	r3, [r5, #224]	@ 0xe0
 81003c2:	f8d5 30e0 	ldr.w	r3, [r5, #224]	@ 0xe0
 81003c6:	f003 0302 	and.w	r3, r3, #2
 81003ca:	9303      	str	r3, [sp, #12]
 81003cc:	9b03      	ldr	r3, [sp, #12]
 81003ce:	f8d5 30e0 	ldr.w	r3, [r5, #224]	@ 0xe0
 81003d2:	f043 0340 	orr.w	r3, r3, #64	@ 0x40
 81003d6:	f8c5 30e0 	str.w	r3, [r5, #224]	@ 0xe0
 81003da:	f8d5 30e0 	ldr.w	r3, [r5, #224]	@ 0xe0
 81003de:	f003 0340 	and.w	r3, r3, #64	@ 0x40
 81003e2:	9304      	str	r3, [sp, #16]
 81003e4:	9b04      	ldr	r3, [sp, #16]
 81003e6:	f8d5 30e0 	ldr.w	r3, [r5, #224]	@ 0xe0
 81003ea:	f043 0304 	orr.w	r3, r3, #4
 81003ee:	f8c5 30e0 	str.w	r3, [r5, #224]	@ 0xe0
 81003f2:	f8d5 30e0 	ldr.w	r3, [r5, #224]	@ 0xe0
 81003f6:	f003 0304 	and.w	r3, r3, #4
 81003fa:	9305      	str	r3, [sp, #20]
 81003fc:	9b05      	ldr	r3, [sp, #20]
 81003fe:	f8d5 30e0 	ldr.w	r3, [r5, #224]	@ 0xe0
 8100402:	f043 0310 	orr.w	r3, r3, #16
 8100406:	f8c5 30e0 	str.w	r3, [r5, #224]	@ 0xe0
 810040a:	f8d5 30e0 	ldr.w	r3, [r5, #224]	@ 0xe0
 810040e:	f003 0310 	and.w	r3, r3, #16
 8100412:	9306      	str	r3, [sp, #24]
 8100414:	9b06      	ldr	r3, [sp, #24]
 8100416:	f8d5 30e0 	ldr.w	r3, [r5, #224]	@ 0xe0
 810041a:	f043 0380 	orr.w	r3, r3, #128	@ 0x80
 810041e:	f8c5 30e0 	str.w	r3, [r5, #224]	@ 0xe0
 8100422:	f8d5 30e0 	ldr.w	r3, [r5, #224]	@ 0xe0
 8100426:	f003 0380 	and.w	r3, r3, #128	@ 0x80
 810042a:	9307      	str	r3, [sp, #28]
 810042c:	9b07      	ldr	r3, [sp, #28]
 810042e:	f8d5 30e0 	ldr.w	r3, [r5, #224]	@ 0xe0
 8100432:	f043 0308 	orr.w	r3, r3, #8
 8100436:	f8c5 30e0 	str.w	r3, [r5, #224]	@ 0xe0
 810043a:	f8d5 30e0 	ldr.w	r3, [r5, #224]	@ 0xe0
 810043e:	f003 0308 	and.w	r3, r3, #8
 8100442:	9308      	str	r3, [sp, #32]
 8100444:	9b08      	ldr	r3, [sp, #32]
 8100446:	f8d5 30e0 	ldr.w	r3, [r5, #224]	@ 0xe0
 810044a:	f043 0301 	orr.w	r3, r3, #1
 810044e:	f8c5 30e0 	str.w	r3, [r5, #224]	@ 0xe0
 8100452:	f8d5 30e0 	ldr.w	r3, [r5, #224]	@ 0xe0
 8100456:	f003 0301 	and.w	r3, r3, #1
 810045a:	9309      	str	r3, [sp, #36]	@ 0x24
 810045c:	9b09      	ldr	r3, [sp, #36]	@ 0x24
 810045e:	f8d5 30e0 	ldr.w	r3, [r5, #224]	@ 0xe0
 8100462:	f043 0320 	orr.w	r3, r3, #32
 8100466:	f8c5 30e0 	str.w	r3, [r5, #224]	@ 0xe0
 810046a:	f8d5 30e0 	ldr.w	r3, [r5, #224]	@ 0xe0
 810046e:	f003 0320 	and.w	r3, r3, #32
 8100472:	930a      	str	r3, [sp, #40]	@ 0x28
 8100474:	9b0a      	ldr	r3, [sp, #40]	@ 0x28
 8100476:	f8d5 30e0 	ldr.w	r3, [r5, #224]	@ 0xe0
 810047a:	f443 6380 	orr.w	r3, r3, #1024	@ 0x400
 810047e:	f8c5 30e0 	str.w	r3, [r5, #224]	@ 0xe0
 8100482:	f8d5 30e0 	ldr.w	r3, [r5, #224]	@ 0xe0
 8100486:	f403 6380 	and.w	r3, r3, #1024	@ 0x400
 810048a:	930b      	str	r3, [sp, #44]	@ 0x2c
 810048c:	9b0b      	ldr	r3, [sp, #44]	@ 0x2c
 810048e:	f8d5 30e0 	ldr.w	r3, [r5, #224]	@ 0xe0
 8100492:	f443 7300 	orr.w	r3, r3, #512	@ 0x200
 8100496:	f8c5 30e0 	str.w	r3, [r5, #224]	@ 0xe0
 810049a:	f8d5 30e0 	ldr.w	r3, [r5, #224]	@ 0xe0
 810049e:	f403 7300 	and.w	r3, r3, #512	@ 0x200
 81004a2:	930c      	str	r3, [sp, #48]	@ 0x30
 81004a4:	2502      	movs	r5, #2
 81004a6:	2603      	movs	r6, #3
 81004a8:	270c      	movs	r7, #12
 81004aa:	9b0c      	ldr	r3, [sp, #48]	@ 0x30
 81004ac:	a917      	add	r1, sp, #92	@ 0x5c
 81004ae:	f240 63ff 	movw	r3, #1791	@ 0x6ff
 81004b2:	f04f 0809 	mov.w	r8, #9
 81004b6:	e9cd 3517 	strd	r3, r5, [sp, #92]	@ 0x5c
 81004ba:	e9cd 671a 	strd	r6, r7, [sp, #104]	@ 0x68
 81004be:	f001 f8bb 	bl	8101638 <HAL_GPIO_Init>
 81004c2:	f44f 4384 	mov.w	r3, #16896	@ 0x4200
 81004c6:	4874      	ldr	r0, [pc, #464]	@ (8100698 <main+0x360>)
 81004c8:	f8cd 806c 	str.w	r8, [sp, #108]	@ 0x6c
 81004cc:	a917      	add	r1, sp, #92	@ 0x5c
 81004ce:	e9cd 3517 	strd	r3, r5, [sp, #92]	@ 0x5c
 81004d2:	e9cd 4419 	strd	r4, r4, [sp, #100]	@ 0x64
 81004d6:	f001 f8af 	bl	8101638 <HAL_GPIO_Init>
 81004da:	f44f 53a8 	mov.w	r3, #5376	@ 0x1500
 81004de:	486f      	ldr	r0, [pc, #444]	@ (810069c <main+0x364>)
 81004e0:	971b      	str	r7, [sp, #108]	@ 0x6c
 81004e2:	a917      	add	r1, sp, #92	@ 0x5c
 81004e4:	e9cd 3517 	strd	r3, r5, [sp, #92]	@ 0x5c
 81004e8:	e9cd 4619 	strd	r4, r6, [sp, #100]	@ 0x64
 81004ec:	f001 f8a4 	bl	8101638 <HAL_GPIO_Init>
 81004f0:	f64f 7383 	movw	r3, #65411	@ 0xff83
 81004f4:	486a      	ldr	r0, [pc, #424]	@ (81006a0 <main+0x368>)
 81004f6:	971b      	str	r7, [sp, #108]	@ 0x6c
 81004f8:	a917      	add	r1, sp, #92	@ 0x5c
 81004fa:	f04f 0a0b 	mov.w	sl, #11
 81004fe:	e9cd 3517 	strd	r3, r5, [sp, #92]	@ 0x5c
 8100502:	e9cd 4619 	strd	r4, r6, [sp, #100]	@ 0x64
 8100506:	f001 f897 	bl	8101638 <HAL_GPIO_Init>
 810050a:	f44f 5360 	mov.w	r3, #14336	@ 0x3800
 810050e:	4862      	ldr	r0, [pc, #392]	@ (8100698 <main+0x360>)
 8100510:	f8cd a06c 	str.w	sl, [sp, #108]	@ 0x6c
 8100514:	a917      	add	r1, sp, #92	@ 0x5c
 8100516:	e9cd 3517 	strd	r3, r5, [sp, #92]	@ 0x5c
 810051a:	e9cd 4419 	strd	r4, r4, [sp, #100]	@ 0x64
 810051e:	f001 f88b 	bl	8101638 <HAL_GPIO_Init>
 8100522:	f64f 72e0 	movw	r2, #65504	@ 0xffe0
 8100526:	485f      	ldr	r0, [pc, #380]	@ (81006a4 <main+0x36c>)
 8100528:	971b      	str	r7, [sp, #108]	@ 0x6c
 810052a:	a917      	add	r1, sp, #92	@ 0x5c
 810052c:	e9cd 2517 	strd	r2, r5, [sp, #92]	@ 0x5c
 8100530:	e9cd 4619 	strd	r4, r6, [sp, #100]	@ 0x64
 8100534:	f001 f880 	bl	8101638 <HAL_GPIO_Init>
 8100538:	f248 1217 	movw	r2, #33047	@ 0x8117
 810053c:	4856      	ldr	r0, [pc, #344]	@ (8100698 <main+0x360>)
 810053e:	971b      	str	r7, [sp, #108]	@ 0x6c
 8100540:	a917      	add	r1, sp, #92	@ 0x5c
 8100542:	e9cd 2517 	strd	r2, r5, [sp, #92]	@ 0x5c
 8100546:	e9cd 4619 	strd	r4, r6, [sp, #100]	@ 0x64
 810054a:	f04f 0904 	mov.w	r9, #4
 810054e:	f001 f873 	bl	8101638 <HAL_GPIO_Init>
 8100552:	4855      	ldr	r0, [pc, #340]	@ (81006a8 <main+0x370>)
 8100554:	971b      	str	r7, [sp, #108]	@ 0x6c
 8100556:	a917      	add	r1, sp, #92	@ 0x5c
 8100558:	e9cd 4619 	strd	r4, r6, [sp, #100]	@ 0x64
 810055c:	e9cd 9517 	strd	r9, r5, [sp, #92]	@ 0x5c
 8100560:	f001 f86a 	bl	8101638 <HAL_GPIO_Init>
 8100564:	f24c 7203 	movw	r2, #50947	@ 0xc703
 8100568:	484f      	ldr	r0, [pc, #316]	@ (81006a8 <main+0x370>)
 810056a:	971b      	str	r7, [sp, #108]	@ 0x6c
 810056c:	a917      	add	r1, sp, #92	@ 0x5c
 810056e:	e9cd 2517 	strd	r2, r5, [sp, #92]	@ 0x5c
 8100572:	e9cd 4619 	strd	r4, r6, [sp, #100]	@ 0x64
 8100576:	f04f 0b80 	mov.w	fp, #128	@ 0x80
 810057a:	f001 f85d 	bl	8101638 <HAL_GPIO_Init>
 810057e:	f44f 1288 	mov.w	r2, #1114112	@ 0x110000
 8100582:	4846      	ldr	r0, [pc, #280]	@ (810069c <main+0x364>)
 8100584:	9419      	str	r4, [sp, #100]	@ 0x64
 8100586:	a917      	add	r1, sp, #92	@ 0x5c
 8100588:	e9cd b217 	strd	fp, r2, [sp, #92]	@ 0x5c
 810058c:	f001 f854 	bl	8101638 <HAL_GPIO_Init>
 8100590:	f64f 023f 	movw	r2, #63551	@ 0xf83f
 8100594:	4845      	ldr	r0, [pc, #276]	@ (81006ac <main+0x374>)
 8100596:	971b      	str	r7, [sp, #108]	@ 0x6c
 8100598:	a917      	add	r1, sp, #92	@ 0x5c
 810059a:	e9cd 2517 	strd	r2, r5, [sp, #92]	@ 0x5c
 810059e:	e9cd 4619 	strd	r4, r6, [sp, #100]	@ 0x64
 81005a2:	f001 f849 	bl	8101638 <HAL_GPIO_Init>
 81005a6:	2340      	movs	r3, #64	@ 0x40
 81005a8:	220a      	movs	r2, #10
 81005aa:	483b      	ldr	r0, [pc, #236]	@ (8100698 <main+0x360>)
 81005ac:	921b      	str	r2, [sp, #108]	@ 0x6c
 81005ae:	a917      	add	r1, sp, #92	@ 0x5c
 81005b0:	e9cd 3517 	strd	r3, r5, [sp, #92]	@ 0x5c
 81005b4:	e9cd 4419 	strd	r4, r4, [sp, #100]	@ 0x64
 81005b8:	f001 f83e 	bl	8101638 <HAL_GPIO_Init>
 81005bc:	21c0      	movs	r1, #192	@ 0xc0
 81005be:	e9cd 1517 	strd	r1, r5, [sp, #92]	@ 0x5c
 81005c2:	483a      	ldr	r0, [pc, #232]	@ (81006ac <main+0x374>)
 81005c4:	f8cd 806c 	str.w	r8, [sp, #108]	@ 0x6c
 81005c8:	a917      	add	r1, sp, #92	@ 0x5c
 81005ca:	e9cd 4419 	strd	r4, r4, [sp, #100]	@ 0x64
 81005ce:	f001 f833 	bl	8101638 <HAL_GPIO_Init>
 81005d2:	f44f 6180 	mov.w	r1, #1024	@ 0x400
 81005d6:	e9cd 1617 	strd	r1, r6, [sp, #92]	@ 0x5c
 81005da:	4834      	ldr	r0, [pc, #208]	@ (81006ac <main+0x374>)
 81005dc:	9419      	str	r4, [sp, #100]	@ 0x64
 81005de:	a917      	add	r1, sp, #92	@ 0x5c
 81005e0:	f001 f82a 	bl	8101638 <HAL_GPIO_Init>
 81005e4:	f44f 7100 	mov.w	r1, #512	@ 0x200
 81005e8:	220a      	movs	r2, #10
 81005ea:	e9cd 1517 	strd	r1, r5, [sp, #92]	@ 0x5c
 81005ee:	482f      	ldr	r0, [pc, #188]	@ (81006ac <main+0x374>)
 81005f0:	921b      	str	r2, [sp, #108]	@ 0x6c
 81005f2:	a917      	add	r1, sp, #92	@ 0x5c
 81005f4:	e9cd 4419 	strd	r4, r4, [sp, #100]	@ 0x64
 81005f8:	f001 f81e 	bl	8101638 <HAL_GPIO_Init>
 81005fc:	2232      	movs	r2, #50	@ 0x32
 81005fe:	4827      	ldr	r0, [pc, #156]	@ (810069c <main+0x364>)
 8100600:	f8cd a06c 	str.w	sl, [sp, #108]	@ 0x6c
 8100604:	a917      	add	r1, sp, #92	@ 0x5c
 8100606:	e9cd 2517 	strd	r2, r5, [sp, #92]	@ 0x5c
 810060a:	e9cd 4419 	strd	r4, r4, [sp, #100]	@ 0x64
 810060e:	f001 f813 	bl	8101638 <HAL_GPIO_Init>
 8100612:	2308      	movs	r3, #8
 8100614:	f44f 7240 	mov.w	r2, #768	@ 0x300
 8100618:	4825      	ldr	r0, [pc, #148]	@ (81006b0 <main+0x378>)
 810061a:	931b      	str	r3, [sp, #108]	@ 0x6c
 810061c:	a917      	add	r1, sp, #92	@ 0x5c
 810061e:	e9cd 2517 	strd	r2, r5, [sp, #92]	@ 0x5c
 8100622:	e9cd 4419 	strd	r4, r4, [sp, #100]	@ 0x64
 8100626:	f001 f807 	bl	8101638 <HAL_GPIO_Init>
 810062a:	481e      	ldr	r0, [pc, #120]	@ (81006a4 <main+0x36c>)
 810062c:	f8cd 806c 	str.w	r8, [sp, #108]	@ 0x6c
 8100630:	a917      	add	r1, sp, #92	@ 0x5c
 8100632:	e9cd 4419 	strd	r4, r4, [sp, #100]	@ 0x64
 8100636:	e9cd 7517 	strd	r7, r5, [sp, #92]	@ 0x5c
 810063a:	f000 fffd 	bl	8101638 <HAL_GPIO_Init>
 810063e:	2286      	movs	r2, #134	@ 0x86
 8100640:	481c      	ldr	r0, [pc, #112]	@ (81006b4 <main+0x37c>)
 8100642:	f8cd a06c 	str.w	sl, [sp, #108]	@ 0x6c
 8100646:	a917      	add	r1, sp, #92	@ 0x5c
 8100648:	e9cd 2517 	strd	r2, r5, [sp, #92]	@ 0x5c
 810064c:	e9cd 4419 	strd	r4, r4, [sp, #100]	@ 0x64
 8100650:	f000 fff2 	bl	8101638 <HAL_GPIO_Init>
 8100654:	4818      	ldr	r0, [pc, #96]	@ (81006b8 <main+0x380>)
 8100656:	f8cd 806c 	str.w	r8, [sp, #108]	@ 0x6c
 810065a:	a917      	add	r1, sp, #92	@ 0x5c
 810065c:	e9cd 4419 	strd	r4, r4, [sp, #100]	@ 0x64
 8100660:	e9cd 9517 	strd	r9, r5, [sp, #92]	@ 0x5c
 8100664:	f000 ffe8 	bl	8101638 <HAL_GPIO_Init>
 8100668:	f44f 6300 	mov.w	r3, #2048	@ 0x800
 810066c:	480e      	ldr	r0, [pc, #56]	@ (81006a8 <main+0x370>)
 810066e:	f8cd 806c 	str.w	r8, [sp, #108]	@ 0x6c
 8100672:	a917      	add	r1, sp, #92	@ 0x5c
 8100674:	e9cd 3517 	strd	r3, r5, [sp, #92]	@ 0x5c
 8100678:	e9cd 4419 	strd	r4, r4, [sp, #100]	@ 0x64
 810067c:	f000 ffdc 	bl	8101638 <HAL_GPIO_Init>
 8100680:	f04f 6180 	mov.w	r1, #67108864	@ 0x4000000
 8100684:	e01a      	b.n	81006bc <main+0x384>
 8100686:	bf00      	nop
 8100688:	58024400 	.word	0x58024400
 810068c:	e000ed00 	.word	0xe000ed00
 8100690:	58026400 	.word	0x58026400
 8100694:	58022000 	.word	0x58022000
 8100698:	58021800 	.word	0x58021800
 810069c:	58020800 	.word	0x58020800
 81006a0:	58021000 	.word	0x58021000
 81006a4:	58021c00 	.word	0x58021c00
 81006a8:	58020c00 	.word	0x58020c00
 81006ac:	58021400 	.word	0x58021400
 81006b0:	58022400 	.word	0x58022400
 81006b4:	58020000 	.word	0x58020000
 81006b8:	58020400 	.word	0x58020400
 81006bc:	4608      	mov	r0, r1
 81006be:	f000 fea1 	bl	8101404 <HAL_SYSCFG_AnalogSwitchConfig>
 81006c2:	f04f 6100 	mov.w	r1, #134217728	@ 0x8000000
 81006c6:	4608      	mov	r0, r1
 81006c8:	f000 fe9c 	bl	8101404 <HAL_SYSCFG_AnalogSwitchConfig>
 81006cc:	f04f 7180 	mov.w	r1, #16777216	@ 0x1000000
 81006d0:	4608      	mov	r0, r1
 81006d2:	f000 fe97 	bl	8101404 <HAL_SYSCFG_AnalogSwitchConfig>
 81006d6:	f04f 7100 	mov.w	r1, #33554432	@ 0x2000000
 81006da:	4608      	mov	r0, r1
 81006dc:	f000 fe92 	bl	8101404 <HAL_SYSCFG_AnalogSwitchConfig>
 81006e0:	4622      	mov	r2, r4
 81006e2:	2105      	movs	r1, #5
 81006e4:	2017      	movs	r0, #23
 81006e6:	f000 ff5b 	bl	81015a0 <HAL_NVIC_SetPriority>
 81006ea:	2017      	movs	r0, #23
 81006ec:	f000 ff8a 	bl	8101604 <HAL_NVIC_EnableIRQ>
 81006f0:	48aa      	ldr	r0, [pc, #680]	@ (810099c <main+0x664>)
 81006f2:	4bab      	ldr	r3, [pc, #684]	@ (81009a0 <main+0x668>)
 81006f4:	6084      	str	r4, [r0, #8]
 81006f6:	e9c0 3400 	strd	r3, r4, [r0]
 81006fa:	2310      	movs	r3, #16
 81006fc:	e9c0 3403 	strd	r3, r4, [r0, #12]
 8100700:	f04f 4300 	mov.w	r3, #2147483648	@ 0x80000000
 8100704:	6203      	str	r3, [r0, #32]
 8100706:	4ba7      	ldr	r3, [pc, #668]	@ (81009a4 <main+0x66c>)
 8100708:	61c4      	str	r4, [r0, #28]
 810070a:	e9c0 4405 	strd	r4, r4, [r0, #20]
 810070e:	8484      	strh	r4, [r0, #36]	@ 0x24
 8100710:	6283      	str	r3, [r0, #40]	@ 0x28
 8100712:	f000 fe81 	bl	8101418 <HAL_CEC_Init>
 8100716:	4604      	mov	r4, r0
 8100718:	b108      	cbz	r0, 810071e <main+0x3e6>
 810071a:	b672      	cpsid	i
 810071c:	e7fe      	b.n	810071c <main+0x3e4>
 810071e:	2228      	movs	r2, #40	@ 0x28
 8100720:	4601      	mov	r1, r0
 8100722:	a817      	add	r0, sp, #92	@ 0x5c
 8100724:	f004 f96e 	bl	8104a04 <memset>
 8100728:	4d9f      	ldr	r5, [pc, #636]	@ (81009a8 <main+0x670>)
 810072a:	4ba0      	ldr	r3, [pc, #640]	@ (81009ac <main+0x674>)
 810072c:	612c      	str	r4, [r5, #16]
 810072e:	e9c5 3400 	strd	r3, r4, [r5]
 8100732:	227f      	movs	r2, #127	@ 0x7f
 8100734:	23ff      	movs	r3, #255	@ 0xff
 8100736:	4628      	mov	r0, r5
 8100738:	e9c5 2302 	strd	r2, r3, [r5, #8]
 810073c:	e9c5 4406 	strd	r4, r4, [r5, #24]
 8100740:	616c      	str	r4, [r5, #20]
 8100742:	f002 fc19 	bl	8102f78 <HAL_RTC_Init>
 8100746:	b108      	cbz	r0, 810074c <main+0x414>
 8100748:	b672      	cpsid	i
 810074a:	e7fe      	b.n	810074a <main+0x412>
 810074c:	2401      	movs	r4, #1
 810074e:	e9cd 4019 	strd	r4, r0, [sp, #100]	@ 0x64
 8100752:	e9cd 001b 	strd	r0, r0, [sp, #108]	@ 0x6c
 8100756:	e9cd 001d 	strd	r0, r0, [sp, #116]	@ 0x74
 810075a:	e9cd 0b1f 	strd	r0, fp, [sp, #124]	@ 0x7c
 810075e:	a917      	add	r1, sp, #92	@ 0x5c
 8100760:	4628      	mov	r0, r5
 8100762:	9417      	str	r4, [sp, #92]	@ 0x5c
 8100764:	f002 fc54 	bl	8103010 <HAL_RTCEx_SetTamper>
 8100768:	4603      	mov	r3, r0
 810076a:	b108      	cbz	r0, 8100770 <main+0x438>
 810076c:	b672      	cpsid	i
 810076e:	e7fe      	b.n	810076e <main+0x436>
 8100770:	488f      	ldr	r0, [pc, #572]	@ (81009b0 <main+0x678>)
 8100772:	4a90      	ldr	r2, [pc, #576]	@ (81009b4 <main+0x67c>)
 8100774:	6002      	str	r2, [r0, #0]
 8100776:	2240      	movs	r2, #64	@ 0x40
 8100778:	e9c0 2312 	strd	r2, r3, [r0, #72]	@ 0x48
 810077c:	4a8e      	ldr	r2, [pc, #568]	@ (81009b8 <main+0x680>)
 810077e:	6202      	str	r2, [r0, #32]
 8100780:	f44f 7580 	mov.w	r5, #256	@ 0x100
 8100784:	2208      	movs	r2, #8
 8100786:	e9c0 3305 	strd	r3, r3, [r0, #20]
 810078a:	e9c0 330b 	strd	r3, r3, [r0, #44]	@ 0x2c
 810078e:	e9c0 3317 	strd	r3, r3, [r0, #92]	@ 0x5c
 8100792:	e9c0 3319 	strd	r3, r3, [r0, #100]	@ 0x64
 8100796:	e9c0 341b 	strd	r3, r4, [r0, #108]	@ 0x6c
 810079a:	6443      	str	r3, [r0, #68]	@ 0x44
 810079c:	6043      	str	r3, [r0, #4]
 810079e:	6503      	str	r3, [r0, #80]	@ 0x50
 81007a0:	6083      	str	r3, [r0, #8]
 81007a2:	6283      	str	r3, [r0, #40]	@ 0x28
 81007a4:	61c3      	str	r3, [r0, #28]
 81007a6:	60c3      	str	r3, [r0, #12]
 81007a8:	6343      	str	r3, [r0, #52]	@ 0x34
 81007aa:	f880 3038 	strb.w	r3, [r0, #56]	@ 0x38
 81007ae:	6743      	str	r3, [r0, #116]	@ 0x74
 81007b0:	e9c0 2415 	strd	r2, r4, [r0, #84]	@ 0x54
 81007b4:	63c4      	str	r4, [r0, #60]	@ 0x3c
 81007b6:	6405      	str	r5, [r0, #64]	@ 0x40
 81007b8:	f002 fca8 	bl	810310c <HAL_SAI_Init>
 81007bc:	4603      	mov	r3, r0
 81007be:	b108      	cbz	r0, 81007c4 <main+0x48c>
 81007c0:	b672      	cpsid	i
 81007c2:	e7fe      	b.n	81007c2 <main+0x48a>
 81007c4:	487d      	ldr	r0, [pc, #500]	@ (81009bc <main+0x684>)
 81007c6:	4a7e      	ldr	r2, [pc, #504]	@ (81009c0 <main+0x688>)
 81007c8:	6002      	str	r2, [r0, #0]
 81007ca:	f64b 3280 	movw	r2, #48000	@ 0xbb80
 81007ce:	e9c0 3301 	strd	r3, r3, [r0, #4]
 81007d2:	e9c0 330b 	strd	r3, r3, [r0, #44]	@ 0x2c
 81007d6:	6143      	str	r3, [r0, #20]
 81007d8:	6283      	str	r3, [r0, #40]	@ 0x28
 81007da:	61c3      	str	r3, [r0, #28]
 81007dc:	60c3      	str	r3, [r0, #12]
 81007de:	f880 3038 	strb.w	r3, [r0, #56]	@ 0x38
 81007e2:	e9c0 450f 	strd	r4, r5, [r0, #60]	@ 0x3c
 81007e6:	f8c0 9044 	str.w	r9, [r0, #68]	@ 0x44
 81007ea:	6202      	str	r2, [r0, #32]
 81007ec:	f002 fc8e 	bl	810310c <HAL_SAI_Init>
 81007f0:	4603      	mov	r3, r0
 81007f2:	b108      	cbz	r0, 81007f8 <main+0x4c0>
 81007f4:	b672      	cpsid	i
 81007f6:	e7fe      	b.n	81007f6 <main+0x4be>
 81007f8:	4872      	ldr	r0, [pc, #456]	@ (81009c4 <main+0x68c>)
 81007fa:	f04f 2240 	mov.w	r2, #1073758208	@ 0x40004000
 81007fe:	e9c0 2300 	strd	r2, r3, [r0]
 8100802:	e9c0 3302 	strd	r3, r3, [r0, #8]
 8100806:	e9c0 3304 	strd	r3, r3, [r0, #16]
 810080a:	e9c0 3306 	strd	r3, r3, [r0, #24]
 810080e:	e9c0 3308 	strd	r3, r3, [r0, #32]
 8100812:	6283      	str	r3, [r0, #40]	@ 0x28
 8100814:	8583      	strh	r3, [r0, #44]	@ 0x2c
 8100816:	f002 fe23 	bl	8103460 <HAL_SPDIFRX_Init>
 810081a:	4603      	mov	r3, r0
 810081c:	b108      	cbz	r0, 8100822 <main+0x4ea>
 810081e:	b672      	cpsid	i
 8100820:	e7fe      	b.n	8100820 <main+0x4e8>
 8100822:	4869      	ldr	r0, [pc, #420]	@ (81009c8 <main+0x690>)
 8100824:	4a69      	ldr	r2, [pc, #420]	@ (81009cc <main+0x694>)
 8100826:	6083      	str	r3, [r0, #8]
 8100828:	f44f 0580 	mov.w	r5, #4194304	@ 0x400000
 810082c:	e9c0 2500 	strd	r2, r5, [r0]
 8100830:	2207      	movs	r2, #7
 8100832:	e9c0 2303 	strd	r2, r3, [r0, #12]
 8100836:	f04f 4480 	mov.w	r4, #1073741824	@ 0x40000000
 810083a:	f04f 5200 	mov.w	r2, #536870912	@ 0x20000000
 810083e:	e9c0 3308 	strd	r3, r3, [r0, #32]
 8100842:	e9c0 330a 	strd	r3, r3, [r0, #40]	@ 0x28
 8100846:	e9c0 430d 	strd	r4, r3, [r0, #52]	@ 0x34
 810084a:	e9c0 330f 	strd	r3, r3, [r0, #60]	@ 0x3c
 810084e:	e9c0 3311 	strd	r3, r3, [r0, #68]	@ 0x44
 8100852:	e9c0 3313 	strd	r3, r3, [r0, #76]	@ 0x4c
 8100856:	e9c0 3315 	strd	r3, r3, [r0, #84]	@ 0x54
 810085a:	6143      	str	r3, [r0, #20]
 810085c:	e9c0 2206 	strd	r2, r2, [r0, #24]
 8100860:	f002 fe42 	bl	81034e8 <HAL_SPI_Init>
 8100864:	4603      	mov	r3, r0
 8100866:	b108      	cbz	r0, 810086c <main+0x534>
 8100868:	b672      	cpsid	i
 810086a:	e7fe      	b.n	810086a <main+0x532>
 810086c:	4858      	ldr	r0, [pc, #352]	@ (81009d0 <main+0x698>)
 810086e:	4a59      	ldr	r2, [pc, #356]	@ (81009d4 <main+0x69c>)
 8100870:	e9c0 430d 	strd	r4, r3, [r0, #52]	@ 0x34
 8100874:	e9c0 2500 	strd	r2, r5, [r0]
 8100878:	e9c0 3602 	strd	r3, r6, [r0, #8]
 810087c:	e9c0 3304 	strd	r3, r3, [r0, #16]
 8100880:	e9c0 3306 	strd	r3, r3, [r0, #24]
 8100884:	e9c0 3308 	strd	r3, r3, [r0, #32]
 8100888:	e9c0 330a 	strd	r3, r3, [r0, #40]	@ 0x28
 810088c:	e9c0 330f 	strd	r3, r3, [r0, #60]	@ 0x3c
 8100890:	e9c0 3311 	strd	r3, r3, [r0, #68]	@ 0x44
 8100894:	e9c0 3313 	strd	r3, r3, [r0, #76]	@ 0x4c
 8100898:	e9c0 3315 	strd	r3, r3, [r0, #84]	@ 0x54
 810089c:	f002 fe24 	bl	81034e8 <HAL_SPI_Init>
 81008a0:	4604      	mov	r4, r0
 81008a2:	b108      	cbz	r0, 81008a8 <main+0x570>
 81008a4:	b672      	cpsid	i
 81008a6:	e7fe      	b.n	81008a6 <main+0x56e>
 81008a8:	4601      	mov	r1, r0
 81008aa:	e9cd 000d 	strd	r0, r0, [sp, #52]	@ 0x34
 81008ae:	900f      	str	r0, [sp, #60]	@ 0x3c
 81008b0:	221c      	movs	r2, #28
 81008b2:	a810      	add	r0, sp, #64	@ 0x40
 81008b4:	f004 f8a6 	bl	8104a04 <memset>
 81008b8:	222c      	movs	r2, #44	@ 0x2c
 81008ba:	4621      	mov	r1, r4
 81008bc:	a817      	add	r0, sp, #92	@ 0x5c
 81008be:	f004 f8a1 	bl	8104a04 <memset>
 81008c2:	4d45      	ldr	r5, [pc, #276]	@ (81009d8 <main+0x6a0>)
 81008c4:	4b45      	ldr	r3, [pc, #276]	@ (81009dc <main+0x6a4>)
 81008c6:	60ac      	str	r4, [r5, #8]
 81008c8:	e9c5 3400 	strd	r3, r4, [r5]
 81008cc:	4628      	mov	r0, r5
 81008ce:	f64f 73ff 	movw	r3, #65535	@ 0xffff
 81008d2:	e9c5 3403 	strd	r3, r4, [r5, #12]
 81008d6:	e9c5 4405 	strd	r4, r4, [r5, #20]
 81008da:	f003 f925 	bl	8103b28 <HAL_TIM_PWM_Init>
 81008de:	b108      	cbz	r0, 81008e4 <main+0x5ac>
 81008e0:	b672      	cpsid	i
 81008e2:	e7fe      	b.n	81008e2 <main+0x5aa>
 81008e4:	e9cd 000d 	strd	r0, r0, [sp, #52]	@ 0x34
 81008e8:	900f      	str	r0, [sp, #60]	@ 0x3c
 81008ea:	a90d      	add	r1, sp, #52	@ 0x34
 81008ec:	4628      	mov	r0, r5
 81008ee:	f003 fa07 	bl	8103d00 <HAL_TIMEx_MasterConfigSynchronization>
 81008f2:	b108      	cbz	r0, 81008f8 <main+0x5c0>
 81008f4:	b672      	cpsid	i
 81008f6:	e7fe      	b.n	81008f6 <main+0x5be>
 81008f8:	2200      	movs	r2, #0
 81008fa:	2660      	movs	r6, #96	@ 0x60
 81008fc:	4836      	ldr	r0, [pc, #216]	@ (81009d8 <main+0x6a0>)
 81008fe:	9216      	str	r2, [sp, #88]	@ 0x58
 8100900:	a910      	add	r1, sp, #64	@ 0x40
 8100902:	e9cd 6210 	strd	r6, r2, [sp, #64]	@ 0x40
 8100906:	e9cd 2212 	strd	r2, r2, [sp, #72]	@ 0x48
 810090a:	e9cd 2214 	strd	r2, r2, [sp, #80]	@ 0x50
 810090e:	f003 f97b 	bl	8103c08 <HAL_TIM_PWM_ConfigChannel>
 8100912:	b108      	cbz	r0, 8100918 <main+0x5e0>
 8100914:	b672      	cpsid	i
 8100916:	e7fe      	b.n	8100916 <main+0x5de>
 8100918:	f44f 5300 	mov.w	r3, #8192	@ 0x2000
 810091c:	e9cd 301c 	strd	r3, r0, [sp, #112]	@ 0x70
 8100920:	f04f 7300 	mov.w	r3, #33554432	@ 0x2000000
 8100924:	e9cd 0017 	strd	r0, r0, [sp, #92]	@ 0x5c
 8100928:	e9cd 0019 	strd	r0, r0, [sp, #100]	@ 0x64
 810092c:	e9cd 301f 	strd	r3, r0, [sp, #124]	@ 0x7c
 8100930:	901b      	str	r0, [sp, #108]	@ 0x6c
 8100932:	901e      	str	r0, [sp, #120]	@ 0x78
 8100934:	9021      	str	r0, [sp, #132]	@ 0x84
 8100936:	a917      	add	r1, sp, #92	@ 0x5c
 8100938:	4827      	ldr	r0, [pc, #156]	@ (81009d8 <main+0x6a0>)
 810093a:	f003 fa2b 	bl	8103d94 <HAL_TIMEx_ConfigBreakDeadTime>
 810093e:	4605      	mov	r5, r0
 8100940:	b108      	cbz	r0, 8100946 <main+0x60e>
 8100942:	b672      	cpsid	i
 8100944:	e7fe      	b.n	8100944 <main+0x60c>
 8100946:	4824      	ldr	r0, [pc, #144]	@ (81009d8 <main+0x6a0>)
 8100948:	4c25      	ldr	r4, [pc, #148]	@ (81009e0 <main+0x6a8>)
 810094a:	f000 fa6f 	bl	8100e2c <HAL_TIM_MspPostInit>
 810094e:	221c      	movs	r2, #28
 8100950:	4629      	mov	r1, r5
 8100952:	a817      	add	r0, sp, #92	@ 0x5c
 8100954:	f004 f856 	bl	8104a04 <memset>
 8100958:	4b22      	ldr	r3, [pc, #136]	@ (81009e4 <main+0x6ac>)
 810095a:	60a5      	str	r5, [r4, #8]
 810095c:	e9c4 3500 	strd	r3, r5, [r4]
 8100960:	4620      	mov	r0, r4
 8100962:	f64f 73ff 	movw	r3, #65535	@ 0xffff
 8100966:	e9c4 3503 	strd	r3, r5, [r4, #12]
 810096a:	61a5      	str	r5, [r4, #24]
 810096c:	f003 f8ac 	bl	8103ac8 <HAL_TIM_Base_Init>
 8100970:	b108      	cbz	r0, 8100976 <main+0x63e>
 8100972:	b672      	cpsid	i
 8100974:	e7fe      	b.n	8100974 <main+0x63c>
 8100976:	4620      	mov	r0, r4
 8100978:	f003 f8d6 	bl	8103b28 <HAL_TIM_PWM_Init>
 810097c:	4602      	mov	r2, r0
 810097e:	b108      	cbz	r0, 8100984 <main+0x64c>
 8100980:	b672      	cpsid	i
 8100982:	e7fe      	b.n	8100982 <main+0x64a>
 8100984:	e9cd 6017 	strd	r6, r0, [sp, #92]	@ 0x5c
 8100988:	9019      	str	r0, [sp, #100]	@ 0x64
 810098a:	901b      	str	r0, [sp, #108]	@ 0x6c
 810098c:	a917      	add	r1, sp, #92	@ 0x5c
 810098e:	4620      	mov	r0, r4
 8100990:	f003 f93a 	bl	8103c08 <HAL_TIM_PWM_ConfigChannel>
 8100994:	4605      	mov	r5, r0
 8100996:	b338      	cbz	r0, 81009e8 <main+0x6b0>
 8100998:	b672      	cpsid	i
 810099a:	e7fe      	b.n	810099a <main+0x662>
 810099c:	1000095c 	.word	0x1000095c
 81009a0:	40006c00 	.word	0x40006c00
 81009a4:	10000088 	.word	0x10000088
 81009a8:	10000938 	.word	0x10000938
 81009ac:	58004000 	.word	0x58004000
 81009b0:	100008a0 	.word	0x100008a0
 81009b4:	40015804 	.word	0x40015804
 81009b8:	0002ee00 	.word	0x0002ee00
 81009bc:	10000808 	.word	0x10000808
 81009c0:	40015824 	.word	0x40015824
 81009c4:	100007b8 	.word	0x100007b8
 81009c8:	10000730 	.word	0x10000730
 81009cc:	40003800 	.word	0x40003800
 81009d0:	100006a8 	.word	0x100006a8
 81009d4:	40015000 	.word	0x40015000
 81009d8:	1000065c 	.word	0x1000065c
 81009dc:	40010400 	.word	0x40010400
 81009e0:	10000610 	.word	0x10000610
 81009e4:	40001c00 	.word	0x40001c00
 81009e8:	4620      	mov	r0, r4
 81009ea:	f000 fa1f 	bl	8100e2c <HAL_TIM_MspPostInit>
 81009ee:	4815      	ldr	r0, [pc, #84]	@ (8100a44 <main+0x70c>)
 81009f0:	4b15      	ldr	r3, [pc, #84]	@ (8100a48 <main+0x710>)
 81009f2:	6003      	str	r3, [r0, #0]
 81009f4:	2309      	movs	r3, #9
 81009f6:	7103      	strb	r3, [r0, #4]
 81009f8:	2301      	movs	r3, #1
 81009fa:	80c5      	strh	r5, [r0, #6]
 81009fc:	7243      	strb	r3, [r0, #9]
 81009fe:	8145      	strh	r5, [r0, #10]
 8100a00:	7305      	strb	r5, [r0, #12]
 8100a02:	81c5      	strh	r5, [r0, #14]
 8100a04:	7405      	strb	r5, [r0, #16]
 8100a06:	f000 ff17 	bl	8101838 <HAL_PCD_Init>
 8100a0a:	b9c0      	cbnz	r0, 8100a3e <main+0x706>
 8100a0c:	4c0f      	ldr	r4, [pc, #60]	@ (8100a4c <main+0x714>)
 8100a0e:	2200      	movs	r2, #0
 8100a10:	f44f 6100 	mov.w	r1, #2048	@ 0x800
 8100a14:	4620      	mov	r0, r4
 8100a16:	f000 fef5 	bl	8101804 <HAL_GPIO_WritePin>
 8100a1a:	f44f 70fa 	mov.w	r0, #500	@ 0x1f4
 8100a1e:	f000 fcd7 	bl	81013d0 <HAL_Delay>
 8100a22:	2201      	movs	r2, #1
 8100a24:	f44f 6100 	mov.w	r1, #2048	@ 0x800
 8100a28:	4620      	mov	r0, r4
 8100a2a:	f000 feeb 	bl	8101804 <HAL_GPIO_WritePin>
 8100a2e:	f44f 70fa 	mov.w	r0, #500	@ 0x1f4
 8100a32:	f000 fccd 	bl	81013d0 <HAL_Delay>
 8100a36:	4806      	ldr	r0, [pc, #24]	@ (8100a50 <main+0x718>)
 8100a38:	f003 ff04 	bl	8104844 <puts>
 8100a3c:	e7e7      	b.n	8100a0e <main+0x6d6>
 8100a3e:	b672      	cpsid	i
 8100a40:	e7fe      	b.n	8100a40 <main+0x708>
 8100a42:	bf00      	nop
 8100a44:	10000098 	.word	0x10000098
 8100a48:	40040000 	.word	0x40040000
 8100a4c:	58020c00 	.word	0x58020c00
 8100a50:	08104f94 	.word	0x08104f94

08100a54 <HAL_TIM_PeriodElapsedCallback>:
 8100a54:	6802      	ldr	r2, [r0, #0]
 8100a56:	4b03      	ldr	r3, [pc, #12]	@ (8100a64 <HAL_TIM_PeriodElapsedCallback+0x10>)
 8100a58:	429a      	cmp	r2, r3
 8100a5a:	d101      	bne.n	8100a60 <HAL_TIM_PeriodElapsedCallback+0xc>
 8100a5c:	f000 bca6 	b.w	81013ac <HAL_IncTick>
 8100a60:	4770      	bx	lr
 8100a62:	bf00      	nop
 8100a64:	40000400 	.word	0x40000400

08100a68 <Error_Handler>:
 8100a68:	b672      	cpsid	i
 8100a6a:	e7fe      	b.n	8100a6a <Error_Handler+0x2>

08100a6c <HAL_MspInit>:
 8100a6c:	4b0a      	ldr	r3, [pc, #40]	@ (8100a98 <HAL_MspInit+0x2c>)
 8100a6e:	f8d3 20f4 	ldr.w	r2, [r3, #244]	@ 0xf4
 8100a72:	f042 0202 	orr.w	r2, r2, #2
 8100a76:	b082      	sub	sp, #8
 8100a78:	f8c3 20f4 	str.w	r2, [r3, #244]	@ 0xf4
 8100a7c:	f8d3 30f4 	ldr.w	r3, [r3, #244]	@ 0xf4
 8100a80:	f003 0302 	and.w	r3, r3, #2
 8100a84:	9301      	str	r3, [sp, #4]
 8100a86:	9b01      	ldr	r3, [sp, #4]
 8100a88:	2200      	movs	r2, #0
 8100a8a:	210f      	movs	r1, #15
 8100a8c:	f06f 0001 	mvn.w	r0, #1
 8100a90:	b002      	add	sp, #8
 8100a92:	f000 bd85 	b.w	81015a0 <HAL_NVIC_SetPriority>
 8100a96:	bf00      	nop
 8100a98:	58024400 	.word	0x58024400

08100a9c <HAL_CEC_MspInit>:
 8100a9c:	b530      	push	{r4, r5, lr}
 8100a9e:	b0bb      	sub	sp, #236	@ 0xec
 8100aa0:	4604      	mov	r4, r0
 8100aa2:	2214      	movs	r2, #20
 8100aa4:	2100      	movs	r1, #0
 8100aa6:	a803      	add	r0, sp, #12
 8100aa8:	f003 ffac 	bl	8104a04 <memset>
 8100aac:	22c8      	movs	r2, #200	@ 0xc8
 8100aae:	2100      	movs	r1, #0
 8100ab0:	a808      	add	r0, sp, #32
 8100ab2:	f003 ffa7 	bl	8104a04 <memset>
 8100ab6:	6822      	ldr	r2, [r4, #0]
 8100ab8:	4b20      	ldr	r3, [pc, #128]	@ (8100b3c <HAL_CEC_MspInit+0xa0>)
 8100aba:	429a      	cmp	r2, r3
 8100abc:	d13b      	bne.n	8100b36 <HAL_CEC_MspInit+0x9a>
 8100abe:	2300      	movs	r3, #0
 8100ac0:	f44f 0200 	mov.w	r2, #8388608	@ 0x800000
 8100ac4:	e9cd 2308 	strd	r2, r3, [sp, #32]
 8100ac8:	a808      	add	r0, sp, #32
 8100aca:	f44f 0380 	mov.w	r3, #4194304	@ 0x400000
 8100ace:	932c      	str	r3, [sp, #176]	@ 0xb0
 8100ad0:	f001 f972 	bl	8101db8 <HAL_RCCEx_PeriphCLKConfig>
 8100ad4:	b108      	cbz	r0, 8100ada <HAL_CEC_MspInit+0x3e>
 8100ad6:	f7ff ffc7 	bl	8100a68 <Error_Handler>
 8100ada:	4b19      	ldr	r3, [pc, #100]	@ (8100b40 <HAL_CEC_MspInit+0xa4>)
 8100adc:	4819      	ldr	r0, [pc, #100]	@ (8100b44 <HAL_CEC_MspInit+0xa8>)
 8100ade:	f8d3 20e8 	ldr.w	r2, [r3, #232]	@ 0xe8
 8100ae2:	f042 6200 	orr.w	r2, r2, #134217728	@ 0x8000000
 8100ae6:	f8c3 20e8 	str.w	r2, [r3, #232]	@ 0xe8
 8100aea:	f8d3 20e8 	ldr.w	r2, [r3, #232]	@ 0xe8
 8100aee:	f002 6200 	and.w	r2, r2, #134217728	@ 0x8000000
 8100af2:	9201      	str	r2, [sp, #4]
 8100af4:	9a01      	ldr	r2, [sp, #4]
 8100af6:	f8d3 20e0 	ldr.w	r2, [r3, #224]	@ 0xe0
 8100afa:	f042 0202 	orr.w	r2, r2, #2
 8100afe:	f8c3 20e0 	str.w	r2, [r3, #224]	@ 0xe0
 8100b02:	f8d3 30e0 	ldr.w	r3, [r3, #224]	@ 0xe0
 8100b06:	f003 0302 	and.w	r3, r3, #2
 8100b0a:	9302      	str	r3, [sp, #8]
 8100b0c:	2240      	movs	r2, #64	@ 0x40
 8100b0e:	9b02      	ldr	r3, [sp, #8]
 8100b10:	2400      	movs	r4, #0
 8100b12:	2312      	movs	r3, #18
 8100b14:	2505      	movs	r5, #5
 8100b16:	a903      	add	r1, sp, #12
 8100b18:	e9cd 2303 	strd	r2, r3, [sp, #12]
 8100b1c:	e9cd 4405 	strd	r4, r4, [sp, #20]
 8100b20:	9507      	str	r5, [sp, #28]
 8100b22:	f000 fd89 	bl	8101638 <HAL_GPIO_Init>
 8100b26:	205e      	movs	r0, #94	@ 0x5e
 8100b28:	4622      	mov	r2, r4
 8100b2a:	4629      	mov	r1, r5
 8100b2c:	f000 fd38 	bl	81015a0 <HAL_NVIC_SetPriority>
 8100b30:	205e      	movs	r0, #94	@ 0x5e
 8100b32:	f000 fd67 	bl	8101604 <HAL_NVIC_EnableIRQ>
 8100b36:	b03b      	add	sp, #236	@ 0xec
 8100b38:	bd30      	pop	{r4, r5, pc}
 8100b3a:	bf00      	nop
 8100b3c:	40006c00 	.word	0x40006c00
 8100b40:	58024400 	.word	0x58024400
 8100b44:	58020400 	.word	0x58020400

08100b48 <HAL_RTC_MspInit>:
 8100b48:	b510      	push	{r4, lr}
 8100b4a:	4604      	mov	r4, r0
 8100b4c:	b0b2      	sub	sp, #200	@ 0xc8
 8100b4e:	22c8      	movs	r2, #200	@ 0xc8
 8100b50:	2100      	movs	r1, #0
 8100b52:	4668      	mov	r0, sp
 8100b54:	f003 ff56 	bl	8104a04 <memset>
 8100b58:	6822      	ldr	r2, [r4, #0]
 8100b5a:	4b0c      	ldr	r3, [pc, #48]	@ (8100b8c <HAL_RTC_MspInit+0x44>)
 8100b5c:	429a      	cmp	r2, r3
 8100b5e:	d112      	bne.n	8100b86 <HAL_RTC_MspInit+0x3e>
 8100b60:	2300      	movs	r3, #0
 8100b62:	f44f 0280 	mov.w	r2, #4194304	@ 0x400000
 8100b66:	e9cd 2300 	strd	r2, r3, [sp]
 8100b6a:	4668      	mov	r0, sp
 8100b6c:	f44f 7300 	mov.w	r3, #512	@ 0x200
 8100b70:	932e      	str	r3, [sp, #184]	@ 0xb8
 8100b72:	f001 f921 	bl	8101db8 <HAL_RCCEx_PeriphCLKConfig>
 8100b76:	b108      	cbz	r0, 8100b7c <HAL_RTC_MspInit+0x34>
 8100b78:	f7ff ff76 	bl	8100a68 <Error_Handler>
 8100b7c:	4a04      	ldr	r2, [pc, #16]	@ (8100b90 <HAL_RTC_MspInit+0x48>)
 8100b7e:	6f13      	ldr	r3, [r2, #112]	@ 0x70
 8100b80:	f443 4300 	orr.w	r3, r3, #32768	@ 0x8000
 8100b84:	6713      	str	r3, [r2, #112]	@ 0x70
 8100b86:	b032      	add	sp, #200	@ 0xc8
 8100b88:	bd10      	pop	{r4, pc}
 8100b8a:	bf00      	nop
 8100b8c:	58004000 	.word	0x58004000
 8100b90:	58024400 	.word	0x58024400

08100b94 <HAL_SPDIFRX_MspInit>:
 8100b94:	b510      	push	{r4, lr}
 8100b96:	b0ba      	sub	sp, #232	@ 0xe8
 8100b98:	4604      	mov	r4, r0
 8100b9a:	2214      	movs	r2, #20
 8100b9c:	2100      	movs	r1, #0
 8100b9e:	a803      	add	r0, sp, #12
 8100ba0:	f003 ff30 	bl	8104a04 <memset>
 8100ba4:	22c8      	movs	r2, #200	@ 0xc8
 8100ba6:	2100      	movs	r1, #0
 8100ba8:	a808      	add	r0, sp, #32
 8100baa:	f003 ff2b 	bl	8104a04 <memset>
 8100bae:	6823      	ldr	r3, [r4, #0]
 8100bb0:	f1b3 2f40 	cmp.w	r3, #1073758208	@ 0x40004000
 8100bb4:	d130      	bne.n	8100c18 <HAL_SPDIFRX_MspInit+0x84>
 8100bb6:	f04f 6200 	mov.w	r2, #134217728	@ 0x8000000
 8100bba:	2300      	movs	r3, #0
 8100bbc:	a808      	add	r0, sp, #32
 8100bbe:	e9cd 2308 	strd	r2, r3, [sp, #32]
 8100bc2:	f001 f8f9 	bl	8101db8 <HAL_RCCEx_PeriphCLKConfig>
 8100bc6:	b108      	cbz	r0, 8100bcc <HAL_SPDIFRX_MspInit+0x38>
 8100bc8:	f7ff ff4e 	bl	8100a68 <Error_Handler>
 8100bcc:	4b13      	ldr	r3, [pc, #76]	@ (8100c1c <HAL_SPDIFRX_MspInit+0x88>)
 8100bce:	4814      	ldr	r0, [pc, #80]	@ (8100c20 <HAL_SPDIFRX_MspInit+0x8c>)
 8100bd0:	f8d3 20e8 	ldr.w	r2, [r3, #232]	@ 0xe8
 8100bd4:	f442 3280 	orr.w	r2, r2, #65536	@ 0x10000
 8100bd8:	f8c3 20e8 	str.w	r2, [r3, #232]	@ 0xe8
 8100bdc:	f8d3 20e8 	ldr.w	r2, [r3, #232]	@ 0xe8
 8100be0:	f402 3280 	and.w	r2, r2, #65536	@ 0x10000
 8100be4:	9201      	str	r2, [sp, #4]
 8100be6:	9a01      	ldr	r2, [sp, #4]
 8100be8:	f8d3 20e0 	ldr.w	r2, [r3, #224]	@ 0xe0
 8100bec:	f042 0208 	orr.w	r2, r2, #8
 8100bf0:	f8c3 20e0 	str.w	r2, [r3, #224]	@ 0xe0
 8100bf4:	f8d3 30e0 	ldr.w	r3, [r3, #224]	@ 0xe0
 8100bf8:	f003 0308 	and.w	r3, r3, #8
 8100bfc:	9302      	str	r3, [sp, #8]
 8100bfe:	9b02      	ldr	r3, [sp, #8]
 8100c00:	2280      	movs	r2, #128	@ 0x80
 8100c02:	2302      	movs	r3, #2
 8100c04:	e9cd 2303 	strd	r2, r3, [sp, #12]
 8100c08:	2300      	movs	r3, #0
 8100c0a:	e9cd 3305 	strd	r3, r3, [sp, #20]
 8100c0e:	a903      	add	r1, sp, #12
 8100c10:	2309      	movs	r3, #9
 8100c12:	9307      	str	r3, [sp, #28]
 8100c14:	f000 fd10 	bl	8101638 <HAL_GPIO_Init>
 8100c18:	b03a      	add	sp, #232	@ 0xe8
 8100c1a:	bd10      	pop	{r4, pc}
 8100c1c:	58024400 	.word	0x58024400
 8100c20:	58020c00 	.word	0x58020c00

08100c24 <HAL_SPI_MspInit>:
 8100c24:	b570      	push	{r4, r5, r6, lr}
 8100c26:	b0be      	sub	sp, #248	@ 0xf8
 8100c28:	4604      	mov	r4, r0
 8100c2a:	2214      	movs	r2, #20
 8100c2c:	2100      	movs	r1, #0
 8100c2e:	a807      	add	r0, sp, #28
 8100c30:	f003 fee8 	bl	8104a04 <memset>
 8100c34:	22c8      	movs	r2, #200	@ 0xc8
 8100c36:	2100      	movs	r1, #0
 8100c38:	a80c      	add	r0, sp, #48	@ 0x30
 8100c3a:	f003 fee3 	bl	8104a04 <memset>
 8100c3e:	6823      	ldr	r3, [r4, #0]
 8100c40:	4a4b      	ldr	r2, [pc, #300]	@ (8100d70 <HAL_SPI_MspInit+0x14c>)
 8100c42:	4293      	cmp	r3, r2
 8100c44:	d149      	bne.n	8100cda <HAL_SPI_MspInit+0xb6>
 8100c46:	f44f 5280 	mov.w	r2, #4096	@ 0x1000
 8100c4a:	2300      	movs	r3, #0
 8100c4c:	a80c      	add	r0, sp, #48	@ 0x30
 8100c4e:	e9cd 230c 	strd	r2, r3, [sp, #48]	@ 0x30
 8100c52:	f001 f8b1 	bl	8101db8 <HAL_RCCEx_PeriphCLKConfig>
 8100c56:	b108      	cbz	r0, 8100c5c <HAL_SPI_MspInit+0x38>
 8100c58:	f7ff ff06 	bl	8100a68 <Error_Handler>
 8100c5c:	4b45      	ldr	r3, [pc, #276]	@ (8100d74 <HAL_SPI_MspInit+0x150>)
 8100c5e:	4846      	ldr	r0, [pc, #280]	@ (8100d78 <HAL_SPI_MspInit+0x154>)
 8100c60:	f8d3 20e8 	ldr.w	r2, [r3, #232]	@ 0xe8
 8100c64:	f442 4280 	orr.w	r2, r2, #16384	@ 0x4000
 8100c68:	f8c3 20e8 	str.w	r2, [r3, #232]	@ 0xe8
 8100c6c:	f8d3 20e8 	ldr.w	r2, [r3, #232]	@ 0xe8
 8100c70:	f402 4280 	and.w	r2, r2, #16384	@ 0x4000
 8100c74:	9201      	str	r2, [sp, #4]
 8100c76:	9a01      	ldr	r2, [sp, #4]
 8100c78:	f8d3 20e0 	ldr.w	r2, [r3, #224]	@ 0xe0
 8100c7c:	f042 0201 	orr.w	r2, r2, #1
 8100c80:	f8c3 20e0 	str.w	r2, [r3, #224]	@ 0xe0
 8100c84:	f8d3 20e0 	ldr.w	r2, [r3, #224]	@ 0xe0
 8100c88:	f002 0201 	and.w	r2, r2, #1
 8100c8c:	9202      	str	r2, [sp, #8]
 8100c8e:	9a02      	ldr	r2, [sp, #8]
 8100c90:	f8d3 20e0 	ldr.w	r2, [r3, #224]	@ 0xe0
 8100c94:	f042 0204 	orr.w	r2, r2, #4
 8100c98:	f8c3 20e0 	str.w	r2, [r3, #224]	@ 0xe0
 8100c9c:	f8d3 30e0 	ldr.w	r3, [r3, #224]	@ 0xe0
 8100ca0:	f003 0304 	and.w	r3, r3, #4
 8100ca4:	9303      	str	r3, [sp, #12]
 8100ca6:	9b03      	ldr	r3, [sp, #12]
 8100ca8:	2602      	movs	r6, #2
 8100caa:	f44f 53c0 	mov.w	r3, #6144	@ 0x1800
 8100cae:	2400      	movs	r4, #0
 8100cb0:	2505      	movs	r5, #5
 8100cb2:	a907      	add	r1, sp, #28
 8100cb4:	e9cd 3607 	strd	r3, r6, [sp, #28]
 8100cb8:	e9cd 4409 	strd	r4, r4, [sp, #36]	@ 0x24
 8100cbc:	950b      	str	r5, [sp, #44]	@ 0x2c
 8100cbe:	f000 fcbb 	bl	8101638 <HAL_GPIO_Init>
 8100cc2:	230c      	movs	r3, #12
 8100cc4:	e9cd 3607 	strd	r3, r6, [sp, #28]
 8100cc8:	e9cd 4409 	strd	r4, r4, [sp, #36]	@ 0x24
 8100ccc:	482b      	ldr	r0, [pc, #172]	@ (8100d7c <HAL_SPI_MspInit+0x158>)
 8100cce:	950b      	str	r5, [sp, #44]	@ 0x2c
 8100cd0:	a907      	add	r1, sp, #28
 8100cd2:	f000 fcb1 	bl	8101638 <HAL_GPIO_Init>
 8100cd6:	b03e      	add	sp, #248	@ 0xf8
 8100cd8:	bd70      	pop	{r4, r5, r6, pc}
 8100cda:	4a29      	ldr	r2, [pc, #164]	@ (8100d80 <HAL_SPI_MspInit+0x15c>)
 8100cdc:	4293      	cmp	r3, r2
 8100cde:	d1fa      	bne.n	8100cd6 <HAL_SPI_MspInit+0xb2>
 8100ce0:	f44f 5200 	mov.w	r2, #8192	@ 0x2000
 8100ce4:	2300      	movs	r3, #0
 8100ce6:	a80c      	add	r0, sp, #48	@ 0x30
 8100ce8:	e9cd 230c 	strd	r2, r3, [sp, #48]	@ 0x30
 8100cec:	f001 f864 	bl	8101db8 <HAL_RCCEx_PeriphCLKConfig>
 8100cf0:	b108      	cbz	r0, 8100cf6 <HAL_SPI_MspInit+0xd2>
 8100cf2:	f7ff feb9 	bl	8100a68 <Error_Handler>
 8100cf6:	4b1f      	ldr	r3, [pc, #124]	@ (8100d74 <HAL_SPI_MspInit+0x150>)
 8100cf8:	4822      	ldr	r0, [pc, #136]	@ (8100d84 <HAL_SPI_MspInit+0x160>)
 8100cfa:	f8d3 20f0 	ldr.w	r2, [r3, #240]	@ 0xf0
 8100cfe:	f442 1280 	orr.w	r2, r2, #1048576	@ 0x100000
 8100d02:	f8c3 20f0 	str.w	r2, [r3, #240]	@ 0xf0
 8100d06:	f8d3 20f0 	ldr.w	r2, [r3, #240]	@ 0xf0
 8100d0a:	f402 1280 	and.w	r2, r2, #1048576	@ 0x100000
 8100d0e:	9204      	str	r2, [sp, #16]
 8100d10:	9a04      	ldr	r2, [sp, #16]
 8100d12:	f8d3 20e0 	ldr.w	r2, [r3, #224]	@ 0xe0
 8100d16:	f442 6280 	orr.w	r2, r2, #1024	@ 0x400
 8100d1a:	f8c3 20e0 	str.w	r2, [r3, #224]	@ 0xe0
 8100d1e:	f8d3 20e0 	ldr.w	r2, [r3, #224]	@ 0xe0
 8100d22:	f402 6280 	and.w	r2, r2, #1024	@ 0x400
 8100d26:	9205      	str	r2, [sp, #20]
 8100d28:	9a05      	ldr	r2, [sp, #20]
 8100d2a:	f8d3 20e0 	ldr.w	r2, [r3, #224]	@ 0xe0
 8100d2e:	f442 7200 	orr.w	r2, r2, #512	@ 0x200
 8100d32:	f8c3 20e0 	str.w	r2, [r3, #224]	@ 0xe0
 8100d36:	f8d3 30e0 	ldr.w	r3, [r3, #224]	@ 0xe0
 8100d3a:	f403 7300 	and.w	r3, r3, #512	@ 0x200
 8100d3e:	9306      	str	r3, [sp, #24]
 8100d40:	9b06      	ldr	r3, [sp, #24]
 8100d42:	2602      	movs	r6, #2
 8100d44:	2303      	movs	r3, #3
 8100d46:	2400      	movs	r4, #0
 8100d48:	2505      	movs	r5, #5
 8100d4a:	a907      	add	r1, sp, #28
 8100d4c:	e9cd 3607 	strd	r3, r6, [sp, #28]
 8100d50:	e9cd 4409 	strd	r4, r4, [sp, #36]	@ 0x24
 8100d54:	950b      	str	r5, [sp, #44]	@ 0x2c
 8100d56:	f000 fc6f 	bl	8101638 <HAL_GPIO_Init>
 8100d5a:	f44f 6340 	mov.w	r3, #3072	@ 0xc00
 8100d5e:	e9cd 3607 	strd	r3, r6, [sp, #28]
 8100d62:	e9cd 4409 	strd	r4, r4, [sp, #36]	@ 0x24
 8100d66:	4808      	ldr	r0, [pc, #32]	@ (8100d88 <HAL_SPI_MspInit+0x164>)
 8100d68:	950b      	str	r5, [sp, #44]	@ 0x2c
 8100d6a:	a907      	add	r1, sp, #28
 8100d6c:	e7b1      	b.n	8100cd2 <HAL_SPI_MspInit+0xae>
 8100d6e:	bf00      	nop
 8100d70:	40003800 	.word	0x40003800
 8100d74:	58024400 	.word	0x58024400
 8100d78:	58020000 	.word	0x58020000
 8100d7c:	58020800 	.word	0x58020800
 8100d80:	40015000 	.word	0x40015000
 8100d84:	58022800 	.word	0x58022800
 8100d88:	58022400 	.word	0x58022400

08100d8c <HAL_TIM_PWM_MspInit>:
 8100d8c:	b510      	push	{r4, lr}
 8100d8e:	4604      	mov	r4, r0
 8100d90:	b088      	sub	sp, #32
 8100d92:	2214      	movs	r2, #20
 8100d94:	2100      	movs	r1, #0
 8100d96:	a803      	add	r0, sp, #12
 8100d98:	f003 fe34 	bl	8104a04 <memset>
 8100d9c:	6822      	ldr	r2, [r4, #0]
 8100d9e:	4b14      	ldr	r3, [pc, #80]	@ (8100df0 <HAL_TIM_PWM_MspInit+0x64>)
 8100da0:	429a      	cmp	r2, r3
 8100da2:	d122      	bne.n	8100dea <HAL_TIM_PWM_MspInit+0x5e>
 8100da4:	4b13      	ldr	r3, [pc, #76]	@ (8100df4 <HAL_TIM_PWM_MspInit+0x68>)
 8100da6:	4814      	ldr	r0, [pc, #80]	@ (8100df8 <HAL_TIM_PWM_MspInit+0x6c>)
 8100da8:	f8d3 20f0 	ldr.w	r2, [r3, #240]	@ 0xf0
 8100dac:	f042 0202 	orr.w	r2, r2, #2
 8100db0:	f8c3 20f0 	str.w	r2, [r3, #240]	@ 0xf0
 8100db4:	f8d3 20f0 	ldr.w	r2, [r3, #240]	@ 0xf0
 8100db8:	f002 0202 	and.w	r2, r2, #2
 8100dbc:	9201      	str	r2, [sp, #4]
 8100dbe:	9a01      	ldr	r2, [sp, #4]
 8100dc0:	f8d3 20e0 	ldr.w	r2, [r3, #224]	@ 0xe0
 8100dc4:	f442 7200 	orr.w	r2, r2, #512	@ 0x200
 8100dc8:	f8c3 20e0 	str.w	r2, [r3, #224]	@ 0xe0
 8100dcc:	f8d3 30e0 	ldr.w	r3, [r3, #224]	@ 0xe0
 8100dd0:	f403 7300 	and.w	r3, r3, #512	@ 0x200
 8100dd4:	9302      	str	r3, [sp, #8]
 8100dd6:	9b02      	ldr	r3, [sp, #8]
 8100dd8:	2240      	movs	r2, #64	@ 0x40
 8100dda:	2302      	movs	r3, #2
 8100ddc:	e9cd 2303 	strd	r2, r3, [sp, #12]
 8100de0:	a903      	add	r1, sp, #12
 8100de2:	2303      	movs	r3, #3
 8100de4:	9307      	str	r3, [sp, #28]
 8100de6:	f000 fc27 	bl	8101638 <HAL_GPIO_Init>
 8100dea:	b008      	add	sp, #32
 8100dec:	bd10      	pop	{r4, pc}
 8100dee:	bf00      	nop
 8100df0:	40010400 	.word	0x40010400
 8100df4:	58024400 	.word	0x58024400
 8100df8:	58022400 	.word	0x58022400

08100dfc <HAL_TIM_Base_MspInit>:
 8100dfc:	6802      	ldr	r2, [r0, #0]
 8100dfe:	4b09      	ldr	r3, [pc, #36]	@ (8100e24 <HAL_TIM_Base_MspInit+0x28>)
 8100e00:	429a      	cmp	r2, r3
 8100e02:	b082      	sub	sp, #8
 8100e04:	d10c      	bne.n	8100e20 <HAL_TIM_Base_MspInit+0x24>
 8100e06:	4b08      	ldr	r3, [pc, #32]	@ (8100e28 <HAL_TIM_Base_MspInit+0x2c>)
 8100e08:	f8d3 20e8 	ldr.w	r2, [r3, #232]	@ 0xe8
 8100e0c:	f042 0280 	orr.w	r2, r2, #128	@ 0x80
 8100e10:	f8c3 20e8 	str.w	r2, [r3, #232]	@ 0xe8
 8100e14:	f8d3 30e8 	ldr.w	r3, [r3, #232]	@ 0xe8
 8100e18:	f003 0380 	and.w	r3, r3, #128	@ 0x80
 8100e1c:	9301      	str	r3, [sp, #4]
 8100e1e:	9b01      	ldr	r3, [sp, #4]
 8100e20:	b002      	add	sp, #8
 8100e22:	4770      	bx	lr
 8100e24:	40001c00 	.word	0x40001c00
 8100e28:	58024400 	.word	0x58024400

08100e2c <HAL_TIM_MspPostInit>:
 8100e2c:	b530      	push	{r4, r5, lr}
 8100e2e:	4604      	mov	r4, r0
 8100e30:	b089      	sub	sp, #36	@ 0x24
 8100e32:	2214      	movs	r2, #20
 8100e34:	2100      	movs	r1, #0
 8100e36:	a803      	add	r0, sp, #12
 8100e38:	f003 fde4 	bl	8104a04 <memset>
 8100e3c:	6823      	ldr	r3, [r4, #0]
 8100e3e:	4a26      	ldr	r2, [pc, #152]	@ (8100ed8 <HAL_TIM_MspPostInit+0xac>)
 8100e40:	4293      	cmp	r3, r2
 8100e42:	d12f      	bne.n	8100ea4 <HAL_TIM_MspPostInit+0x78>
 8100e44:	4b25      	ldr	r3, [pc, #148]	@ (8100edc <HAL_TIM_MspPostInit+0xb0>)
 8100e46:	4826      	ldr	r0, [pc, #152]	@ (8100ee0 <HAL_TIM_MspPostInit+0xb4>)
 8100e48:	f8d3 20e0 	ldr.w	r2, [r3, #224]	@ 0xe0
 8100e4c:	f042 0204 	orr.w	r2, r2, #4
 8100e50:	f8c3 20e0 	str.w	r2, [r3, #224]	@ 0xe0
 8100e54:	f8d3 20e0 	ldr.w	r2, [r3, #224]	@ 0xe0
 8100e58:	f002 0204 	and.w	r2, r2, #4
 8100e5c:	9200      	str	r2, [sp, #0]
 8100e5e:	9a00      	ldr	r2, [sp, #0]
 8100e60:	f8d3 20e0 	ldr.w	r2, [r3, #224]	@ 0xe0
 8100e64:	f442 7200 	orr.w	r2, r2, #512	@ 0x200
 8100e68:	f8c3 20e0 	str.w	r2, [r3, #224]	@ 0xe0
 8100e6c:	f8d3 30e0 	ldr.w	r3, [r3, #224]	@ 0xe0
 8100e70:	f403 7300 	and.w	r3, r3, #512	@ 0x200
 8100e74:	9301      	str	r3, [sp, #4]
 8100e76:	9b01      	ldr	r3, [sp, #4]
 8100e78:	2502      	movs	r5, #2
 8100e7a:	2340      	movs	r3, #64	@ 0x40
 8100e7c:	2403      	movs	r4, #3
 8100e7e:	a903      	add	r1, sp, #12
 8100e80:	e9cd 3503 	strd	r3, r5, [sp, #12]
 8100e84:	9407      	str	r4, [sp, #28]
 8100e86:	f000 fbd7 	bl	8101638 <HAL_GPIO_Init>
 8100e8a:	2380      	movs	r3, #128	@ 0x80
 8100e8c:	e9cd 3503 	strd	r3, r5, [sp, #12]
 8100e90:	2300      	movs	r3, #0
 8100e92:	e9cd 3305 	strd	r3, r3, [sp, #20]
 8100e96:	4813      	ldr	r0, [pc, #76]	@ (8100ee4 <HAL_TIM_MspPostInit+0xb8>)
 8100e98:	9407      	str	r4, [sp, #28]
 8100e9a:	a903      	add	r1, sp, #12
 8100e9c:	f000 fbcc 	bl	8101638 <HAL_GPIO_Init>
 8100ea0:	b009      	add	sp, #36	@ 0x24
 8100ea2:	bd30      	pop	{r4, r5, pc}
 8100ea4:	4a10      	ldr	r2, [pc, #64]	@ (8100ee8 <HAL_TIM_MspPostInit+0xbc>)
 8100ea6:	4293      	cmp	r3, r2
 8100ea8:	d1fa      	bne.n	8100ea0 <HAL_TIM_MspPostInit+0x74>
 8100eaa:	4b0c      	ldr	r3, [pc, #48]	@ (8100edc <HAL_TIM_MspPostInit+0xb0>)
 8100eac:	480f      	ldr	r0, [pc, #60]	@ (8100eec <HAL_TIM_MspPostInit+0xc0>)
 8100eae:	f8d3 20e0 	ldr.w	r2, [r3, #224]	@ 0xe0
 8100eb2:	f042 0220 	orr.w	r2, r2, #32
 8100eb6:	f8c3 20e0 	str.w	r2, [r3, #224]	@ 0xe0
 8100eba:	f8d3 30e0 	ldr.w	r3, [r3, #224]	@ 0xe0
 8100ebe:	f003 0320 	and.w	r3, r3, #32
 8100ec2:	9302      	str	r3, [sp, #8]
 8100ec4:	9b02      	ldr	r3, [sp, #8]
 8100ec6:	f44f 7280 	mov.w	r2, #256	@ 0x100
 8100eca:	2302      	movs	r3, #2
 8100ecc:	e9cd 2303 	strd	r2, r3, [sp, #12]
 8100ed0:	2309      	movs	r3, #9
 8100ed2:	9307      	str	r3, [sp, #28]
 8100ed4:	a903      	add	r1, sp, #12
 8100ed6:	e7e1      	b.n	8100e9c <HAL_TIM_MspPostInit+0x70>
 8100ed8:	40010400 	.word	0x40010400
 8100edc:	58024400 	.word	0x58024400
 8100ee0:	58020800 	.word	0x58020800
 8100ee4:	58022400 	.word	0x58022400
 8100ee8:	40001c00 	.word	0x40001c00
 8100eec:	58021400 	.word	0x58021400

08100ef0 <HAL_PCD_MspInit>:
 8100ef0:	b5f0      	push	{r4, r5, r6, r7, lr}
 8100ef2:	b0bf      	sub	sp, #252	@ 0xfc
 8100ef4:	4604      	mov	r4, r0
 8100ef6:	2214      	movs	r2, #20
 8100ef8:	2100      	movs	r1, #0
 8100efa:	a807      	add	r0, sp, #28
 8100efc:	f003 fd82 	bl	8104a04 <memset>
 8100f00:	22c8      	movs	r2, #200	@ 0xc8
 8100f02:	2100      	movs	r1, #0
 8100f04:	a80c      	add	r0, sp, #48	@ 0x30
 8100f06:	f003 fd7d 	bl	8104a04 <memset>
 8100f0a:	6822      	ldr	r2, [r4, #0]
 8100f0c:	4b50      	ldr	r3, [pc, #320]	@ (8101050 <HAL_PCD_MspInit+0x160>)
 8100f0e:	429a      	cmp	r2, r3
 8100f10:	f040 809c 	bne.w	810104c <HAL_PCD_MspInit+0x15c>
 8100f14:	2300      	movs	r3, #0
 8100f16:	f44f 2280 	mov.w	r2, #262144	@ 0x40000
 8100f1a:	e9cd 230c 	strd	r2, r3, [sp, #48]	@ 0x30
 8100f1e:	a80c      	add	r0, sp, #48	@ 0x30
 8100f20:	f44f 1380 	mov.w	r3, #1048576	@ 0x100000
 8100f24:	932f      	str	r3, [sp, #188]	@ 0xbc
 8100f26:	f000 ff47 	bl	8101db8 <HAL_RCCEx_PeriphCLKConfig>
 8100f2a:	b108      	cbz	r0, 8100f30 <HAL_PCD_MspInit+0x40>
 8100f2c:	f7ff fd9c 	bl	8100a68 <Error_Handler>
 8100f30:	4c48      	ldr	r4, [pc, #288]	@ (8101054 <HAL_PCD_MspInit+0x164>)
 8100f32:	f000 fd4f 	bl	81019d4 <HAL_PWREx_EnableUSBVoltageDetector>
 8100f36:	f8d4 30e0 	ldr.w	r3, [r4, #224]	@ 0xe0
 8100f3a:	4847      	ldr	r0, [pc, #284]	@ (8101058 <HAL_PCD_MspInit+0x168>)
 8100f3c:	f043 0302 	orr.w	r3, r3, #2
 8100f40:	f8c4 30e0 	str.w	r3, [r4, #224]	@ 0xe0
 8100f44:	f8d4 30e0 	ldr.w	r3, [r4, #224]	@ 0xe0
 8100f48:	f003 0302 	and.w	r3, r3, #2
 8100f4c:	9300      	str	r3, [sp, #0]
 8100f4e:	9b00      	ldr	r3, [sp, #0]
 8100f50:	f8d4 30e0 	ldr.w	r3, [r4, #224]	@ 0xe0
 8100f54:	f443 7380 	orr.w	r3, r3, #256	@ 0x100
 8100f58:	f8c4 30e0 	str.w	r3, [r4, #224]	@ 0xe0
 8100f5c:	f8d4 30e0 	ldr.w	r3, [r4, #224]	@ 0xe0
 8100f60:	f403 7380 	and.w	r3, r3, #256	@ 0x100
 8100f64:	9301      	str	r3, [sp, #4]
 8100f66:	9b01      	ldr	r3, [sp, #4]
 8100f68:	f8d4 30e0 	ldr.w	r3, [r4, #224]	@ 0xe0
 8100f6c:	f043 0304 	orr.w	r3, r3, #4
 8100f70:	f8c4 30e0 	str.w	r3, [r4, #224]	@ 0xe0
 8100f74:	f8d4 30e0 	ldr.w	r3, [r4, #224]	@ 0xe0
 8100f78:	f003 0304 	and.w	r3, r3, #4
 8100f7c:	9302      	str	r3, [sp, #8]
 8100f7e:	9b02      	ldr	r3, [sp, #8]
 8100f80:	f8d4 30e0 	ldr.w	r3, [r4, #224]	@ 0xe0
 8100f84:	f043 0380 	orr.w	r3, r3, #128	@ 0x80
 8100f88:	f8c4 30e0 	str.w	r3, [r4, #224]	@ 0xe0
 8100f8c:	f8d4 30e0 	ldr.w	r3, [r4, #224]	@ 0xe0
 8100f90:	f003 0380 	and.w	r3, r3, #128	@ 0x80
 8100f94:	9303      	str	r3, [sp, #12]
 8100f96:	9b03      	ldr	r3, [sp, #12]
 8100f98:	f8d4 30e0 	ldr.w	r3, [r4, #224]	@ 0xe0
 8100f9c:	f043 0301 	orr.w	r3, r3, #1
 8100fa0:	f8c4 30e0 	str.w	r3, [r4, #224]	@ 0xe0
 8100fa4:	f8d4 30e0 	ldr.w	r3, [r4, #224]	@ 0xe0
 8100fa8:	f003 0301 	and.w	r3, r3, #1
 8100fac:	9304      	str	r3, [sp, #16]
 8100fae:	2502      	movs	r5, #2
 8100fb0:	2700      	movs	r7, #0
 8100fb2:	260a      	movs	r6, #10
 8100fb4:	9b04      	ldr	r3, [sp, #16]
 8100fb6:	960b      	str	r6, [sp, #44]	@ 0x2c
 8100fb8:	f643 4323 	movw	r3, #15395	@ 0x3c23
 8100fbc:	a907      	add	r1, sp, #28
 8100fbe:	e9cd 3507 	strd	r3, r5, [sp, #28]
 8100fc2:	e9cd 7509 	strd	r7, r5, [sp, #36]	@ 0x24
 8100fc6:	f000 fb37 	bl	8101638 <HAL_GPIO_Init>
 8100fca:	f44f 6300 	mov.w	r3, #2048	@ 0x800
 8100fce:	4823      	ldr	r0, [pc, #140]	@ (810105c <HAL_PCD_MspInit+0x16c>)
 8100fd0:	960b      	str	r6, [sp, #44]	@ 0x2c
 8100fd2:	a907      	add	r1, sp, #28
 8100fd4:	e9cd 3507 	strd	r3, r5, [sp, #28]
 8100fd8:	e9cd 7509 	strd	r7, r5, [sp, #36]	@ 0x24
 8100fdc:	f000 fb2c 	bl	8101638 <HAL_GPIO_Init>
 8100fe0:	2301      	movs	r3, #1
 8100fe2:	481f      	ldr	r0, [pc, #124]	@ (8101060 <HAL_PCD_MspInit+0x170>)
 8100fe4:	960b      	str	r6, [sp, #44]	@ 0x2c
 8100fe6:	a907      	add	r1, sp, #28
 8100fe8:	e9cd 3507 	strd	r3, r5, [sp, #28]
 8100fec:	e9cd 7509 	strd	r7, r5, [sp, #36]	@ 0x24
 8100ff0:	f000 fb22 	bl	8101638 <HAL_GPIO_Init>
 8100ff4:	2310      	movs	r3, #16
 8100ff6:	481b      	ldr	r0, [pc, #108]	@ (8101064 <HAL_PCD_MspInit+0x174>)
 8100ff8:	960b      	str	r6, [sp, #44]	@ 0x2c
 8100ffa:	a907      	add	r1, sp, #28
 8100ffc:	e9cd 3507 	strd	r3, r5, [sp, #28]
 8101000:	e9cd 7509 	strd	r7, r5, [sp, #36]	@ 0x24
 8101004:	f000 fb18 	bl	8101638 <HAL_GPIO_Init>
 8101008:	2328      	movs	r3, #40	@ 0x28
 810100a:	4817      	ldr	r0, [pc, #92]	@ (8101068 <HAL_PCD_MspInit+0x178>)
 810100c:	960b      	str	r6, [sp, #44]	@ 0x2c
 810100e:	a907      	add	r1, sp, #28
 8101010:	e9cd 3507 	strd	r3, r5, [sp, #28]
 8101014:	e9cd 7509 	strd	r7, r5, [sp, #36]	@ 0x24
 8101018:	f000 fb0e 	bl	8101638 <HAL_GPIO_Init>
 810101c:	f8d4 30d8 	ldr.w	r3, [r4, #216]	@ 0xd8
 8101020:	f043 7300 	orr.w	r3, r3, #33554432	@ 0x2000000
 8101024:	f8c4 30d8 	str.w	r3, [r4, #216]	@ 0xd8
 8101028:	f8d4 30d8 	ldr.w	r3, [r4, #216]	@ 0xd8
 810102c:	f003 7300 	and.w	r3, r3, #33554432	@ 0x2000000
 8101030:	9305      	str	r3, [sp, #20]
 8101032:	9b05      	ldr	r3, [sp, #20]
 8101034:	f8d4 30d8 	ldr.w	r3, [r4, #216]	@ 0xd8
 8101038:	f043 6380 	orr.w	r3, r3, #67108864	@ 0x4000000
 810103c:	f8c4 30d8 	str.w	r3, [r4, #216]	@ 0xd8
 8101040:	f8d4 30d8 	ldr.w	r3, [r4, #216]	@ 0xd8
 8101044:	f003 6380 	and.w	r3, r3, #67108864	@ 0x4000000
 8101048:	9306      	str	r3, [sp, #24]
 810104a:	9b06      	ldr	r3, [sp, #24]
 810104c:	b03f      	add	sp, #252	@ 0xfc
 810104e:	bdf0      	pop	{r4, r5, r6, r7, pc}
 8101050:	40040000 	.word	0x40040000
 8101054:	58024400 	.word	0x58024400
 8101058:	58020400 	.word	0x58020400
 810105c:	58022000 	.word	0x58022000
 8101060:	58020800 	.word	0x58020800
 8101064:	58021c00 	.word	0x58021c00
 8101068:	58020000 	.word	0x58020000

0810106c <HAL_SAI_MspInit>:
 810106c:	b5f0      	push	{r4, r5, r6, r7, lr}
 810106e:	4604      	mov	r4, r0
 8101070:	b0bb      	sub	sp, #236	@ 0xec
 8101072:	22c8      	movs	r2, #200	@ 0xc8
 8101074:	2100      	movs	r1, #0
 8101076:	a808      	add	r0, sp, #32
 8101078:	f003 fcc4 	bl	8104a04 <memset>
 810107c:	6822      	ldr	r2, [r4, #0]
 810107e:	4b34      	ldr	r3, [pc, #208]	@ (8101150 <HAL_SAI_MspInit+0xe4>)
 8101080:	429a      	cmp	r2, r3
 8101082:	d133      	bne.n	81010ec <HAL_SAI_MspInit+0x80>
 8101084:	f44f 7280 	mov.w	r2, #256	@ 0x100
 8101088:	2300      	movs	r3, #0
 810108a:	a808      	add	r0, sp, #32
 810108c:	e9cd 2308 	strd	r2, r3, [sp, #32]
 8101090:	f000 fe92 	bl	8101db8 <HAL_RCCEx_PeriphCLKConfig>
 8101094:	b108      	cbz	r0, 810109a <HAL_SAI_MspInit+0x2e>
 8101096:	f7ff fce7 	bl	8100a68 <Error_Handler>
 810109a:	482e      	ldr	r0, [pc, #184]	@ (8101154 <HAL_SAI_MspInit+0xe8>)
 810109c:	6803      	ldr	r3, [r0, #0]
 810109e:	b963      	cbnz	r3, 81010ba <HAL_SAI_MspInit+0x4e>
 81010a0:	4a2d      	ldr	r2, [pc, #180]	@ (8101158 <HAL_SAI_MspInit+0xec>)
 81010a2:	f8d2 10f0 	ldr.w	r1, [r2, #240]	@ 0xf0
 81010a6:	f441 0180 	orr.w	r1, r1, #4194304	@ 0x400000
 81010aa:	f8c2 10f0 	str.w	r1, [r2, #240]	@ 0xf0
 81010ae:	f8d2 20f0 	ldr.w	r2, [r2, #240]	@ 0xf0
 81010b2:	f402 0280 	and.w	r2, r2, #4194304	@ 0x400000
 81010b6:	9201      	str	r2, [sp, #4]
 81010b8:	9a01      	ldr	r2, [sp, #4]
 81010ba:	3301      	adds	r3, #1
 81010bc:	6003      	str	r3, [r0, #0]
 81010be:	2702      	movs	r7, #2
 81010c0:	2370      	movs	r3, #112	@ 0x70
 81010c2:	4826      	ldr	r0, [pc, #152]	@ (810115c <HAL_SAI_MspInit+0xf0>)
 81010c4:	2500      	movs	r5, #0
 81010c6:	2606      	movs	r6, #6
 81010c8:	a903      	add	r1, sp, #12
 81010ca:	e9cd 3703 	strd	r3, r7, [sp, #12]
 81010ce:	e9cd 5505 	strd	r5, r5, [sp, #20]
 81010d2:	9607      	str	r6, [sp, #28]
 81010d4:	f000 fab0 	bl	8101638 <HAL_GPIO_Init>
 81010d8:	2380      	movs	r3, #128	@ 0x80
 81010da:	4821      	ldr	r0, [pc, #132]	@ (8101160 <HAL_SAI_MspInit+0xf4>)
 81010dc:	9607      	str	r6, [sp, #28]
 81010de:	a903      	add	r1, sp, #12
 81010e0:	e9cd 3703 	strd	r3, r7, [sp, #12]
 81010e4:	e9cd 5505 	strd	r5, r5, [sp, #20]
 81010e8:	f000 faa6 	bl	8101638 <HAL_GPIO_Init>
 81010ec:	6822      	ldr	r2, [r4, #0]
 81010ee:	4b1d      	ldr	r3, [pc, #116]	@ (8101164 <HAL_SAI_MspInit+0xf8>)
 81010f0:	429a      	cmp	r2, r3
 81010f2:	d12b      	bne.n	810114c <HAL_SAI_MspInit+0xe0>
 81010f4:	2300      	movs	r3, #0
 81010f6:	f44f 7280 	mov.w	r2, #256	@ 0x100
 81010fa:	e9cd 2308 	strd	r2, r3, [sp, #32]
 81010fe:	a808      	add	r0, sp, #32
 8101100:	2300      	movs	r3, #0
 8101102:	931f      	str	r3, [sp, #124]	@ 0x7c
 8101104:	f000 fe58 	bl	8101db8 <HAL_RCCEx_PeriphCLKConfig>
 8101108:	b108      	cbz	r0, 810110e <HAL_SAI_MspInit+0xa2>
 810110a:	f7ff fcad 	bl	8100a68 <Error_Handler>
 810110e:	4811      	ldr	r0, [pc, #68]	@ (8101154 <HAL_SAI_MspInit+0xe8>)
 8101110:	6803      	ldr	r3, [r0, #0]
 8101112:	b963      	cbnz	r3, 810112e <HAL_SAI_MspInit+0xc2>
 8101114:	4a10      	ldr	r2, [pc, #64]	@ (8101158 <HAL_SAI_MspInit+0xec>)
 8101116:	f8d2 10f0 	ldr.w	r1, [r2, #240]	@ 0xf0
 810111a:	f441 0180 	orr.w	r1, r1, #4194304	@ 0x400000
 810111e:	f8c2 10f0 	str.w	r1, [r2, #240]	@ 0xf0
 8101122:	f8d2 20f0 	ldr.w	r2, [r2, #240]	@ 0xf0
 8101126:	f402 0280 	and.w	r2, r2, #4194304	@ 0x400000
 810112a:	9202      	str	r2, [sp, #8]
 810112c:	9a02      	ldr	r2, [sp, #8]
 810112e:	3301      	adds	r3, #1
 8101130:	6003      	str	r3, [r0, #0]
 8101132:	2208      	movs	r2, #8
 8101134:	2302      	movs	r3, #2
 8101136:	e9cd 2303 	strd	r2, r3, [sp, #12]
 810113a:	2300      	movs	r3, #0
 810113c:	e9cd 3305 	strd	r3, r3, [sp, #20]
 8101140:	4806      	ldr	r0, [pc, #24]	@ (810115c <HAL_SAI_MspInit+0xf0>)
 8101142:	2306      	movs	r3, #6
 8101144:	a903      	add	r1, sp, #12
 8101146:	9307      	str	r3, [sp, #28]
 8101148:	f000 fa76 	bl	8101638 <HAL_GPIO_Init>
 810114c:	b03b      	add	sp, #236	@ 0xec
 810114e:	bdf0      	pop	{r4, r5, r6, r7, pc}
 8101150:	40015804 	.word	0x40015804
 8101154:	100009a0 	.word	0x100009a0
 8101158:	58024400 	.word	0x58024400
 810115c:	58021000 	.word	0x58021000
 8101160:	58021800 	.word	0x58021800
 8101164:	40015824 	.word	0x40015824

08101168 <HAL_InitTick>:
 8101168:	b510      	push	{r4, lr}
 810116a:	280f      	cmp	r0, #15
 810116c:	b08a      	sub	sp, #40	@ 0x28
 810116e:	4604      	mov	r4, r0
 8101170:	d902      	bls.n	8101178 <HAL_InitTick+0x10>
 8101172:	2001      	movs	r0, #1
 8101174:	b00a      	add	sp, #40	@ 0x28
 8101176:	bd10      	pop	{r4, pc}
 8101178:	4601      	mov	r1, r0
 810117a:	2200      	movs	r2, #0
 810117c:	201d      	movs	r0, #29
 810117e:	f000 fa0f 	bl	81015a0 <HAL_NVIC_SetPriority>
 8101182:	201d      	movs	r0, #29
 8101184:	f000 fa3e 	bl	8101604 <HAL_NVIC_EnableIRQ>
 8101188:	4b18      	ldr	r3, [pc, #96]	@ (81011ec <HAL_InitTick+0x84>)
 810118a:	601c      	str	r4, [r3, #0]
 810118c:	4b18      	ldr	r3, [pc, #96]	@ (81011f0 <HAL_InitTick+0x88>)
 810118e:	f8d3 20e8 	ldr.w	r2, [r3, #232]	@ 0xe8
 8101192:	f042 0202 	orr.w	r2, r2, #2
 8101196:	f8c3 20e8 	str.w	r2, [r3, #232]	@ 0xe8
 810119a:	f8d3 30e8 	ldr.w	r3, [r3, #232]	@ 0xe8
 810119e:	f003 0302 	and.w	r3, r3, #2
 81011a2:	9301      	str	r3, [sp, #4]
 81011a4:	4669      	mov	r1, sp
 81011a6:	a802      	add	r0, sp, #8
 81011a8:	9b01      	ldr	r3, [sp, #4]
 81011aa:	f000 fcef 	bl	8101b8c <HAL_RCC_GetClockConfig>
 81011ae:	9b07      	ldr	r3, [sp, #28]
 81011b0:	b9c3      	cbnz	r3, 81011e4 <HAL_InitTick+0x7c>
 81011b2:	f000 fcd9 	bl	8101b68 <HAL_RCC_GetPCLK1Freq>
 81011b6:	4c0f      	ldr	r4, [pc, #60]	@ (81011f4 <HAL_InitTick+0x8c>)
 81011b8:	4b0f      	ldr	r3, [pc, #60]	@ (81011f8 <HAL_InitTick+0x90>)
 81011ba:	6023      	str	r3, [r4, #0]
 81011bc:	f240 33e7 	movw	r3, #999	@ 0x3e7
 81011c0:	60e3      	str	r3, [r4, #12]
 81011c2:	4b0e      	ldr	r3, [pc, #56]	@ (81011fc <HAL_InitTick+0x94>)
 81011c4:	fbb0 f0f3 	udiv	r0, r0, r3
 81011c8:	3801      	subs	r0, #1
 81011ca:	2300      	movs	r3, #0
 81011cc:	6060      	str	r0, [r4, #4]
 81011ce:	4620      	mov	r0, r4
 81011d0:	6123      	str	r3, [r4, #16]
 81011d2:	60a3      	str	r3, [r4, #8]
 81011d4:	f002 fc78 	bl	8103ac8 <HAL_TIM_Base_Init>
 81011d8:	2800      	cmp	r0, #0
 81011da:	d1ca      	bne.n	8101172 <HAL_InitTick+0xa>
 81011dc:	4620      	mov	r0, r4
 81011de:	f002 fb3d 	bl	810385c <HAL_TIM_Base_Start_IT>
 81011e2:	e7c7      	b.n	8101174 <HAL_InitTick+0xc>
 81011e4:	f000 fcc0 	bl	8101b68 <HAL_RCC_GetPCLK1Freq>
 81011e8:	0040      	lsls	r0, r0, #1
 81011ea:	e7e4      	b.n	81011b6 <HAL_InitTick+0x4e>
 81011ec:	1000000c 	.word	0x1000000c
 81011f0:	58024400 	.word	0x58024400
 81011f4:	100009a4 	.word	0x100009a4
 81011f8:	40000400 	.word	0x40000400
 81011fc:	000f4240 	.word	0x000f4240

08101200 <NMI_Handler>:
 8101200:	e7fe      	b.n	8101200 <NMI_Handler>

08101202 <HardFault_Handler>:
 8101202:	e7fe      	b.n	8101202 <HardFault_Handler>

08101204 <MemManage_Handler>:
 8101204:	e7fe      	b.n	8101204 <MemManage_Handler>

08101206 <BusFault_Handler>:
 8101206:	e7fe      	b.n	8101206 <BusFault_Handler>

08101208 <UsageFault_Handler>:
 8101208:	e7fe      	b.n	8101208 <UsageFault_Handler>

0810120a <DebugMon_Handler>:
 810120a:	4770      	bx	lr

0810120c <EXTI9_5_IRQHandler>:
 810120c:	2080      	movs	r0, #128	@ 0x80
 810120e:	f000 bafe 	b.w	810180e <HAL_GPIO_EXTI_IRQHandler>
	...

08101214 <TIM3_IRQHandler>:
 8101214:	4801      	ldr	r0, [pc, #4]	@ (810121c <TIM3_IRQHandler+0x8>)
 8101216:	f002 bb63 	b.w	81038e0 <HAL_TIM_IRQHandler>
 810121a:	bf00      	nop
 810121c:	100009a4 	.word	0x100009a4

08101220 <CEC_IRQHandler>:
 8101220:	4801      	ldr	r0, [pc, #4]	@ (8101228 <CEC_IRQHandler+0x8>)
 8101222:	f000 b932 	b.w	810148a <HAL_CEC_IRQHandler>
 8101226:	bf00      	nop
 8101228:	1000095c 	.word	0x1000095c

0810122c <_read>:
 810122c:	b570      	push	{r4, r5, r6, lr}
 810122e:	460d      	mov	r5, r1
 8101230:	4614      	mov	r4, r2
 8101232:	460e      	mov	r6, r1
 8101234:	1b73      	subs	r3, r6, r5
 8101236:	429c      	cmp	r4, r3
 8101238:	dc01      	bgt.n	810123e <_read+0x12>
 810123a:	4620      	mov	r0, r4
 810123c:	bd70      	pop	{r4, r5, r6, pc}
 810123e:	f3af 8000 	nop.w
 8101242:	f806 0b01 	strb.w	r0, [r6], #1
 8101246:	e7f5      	b.n	8101234 <_read+0x8>

08101248 <_write>:
 8101248:	b570      	push	{r4, r5, r6, lr}
 810124a:	460d      	mov	r5, r1
 810124c:	4614      	mov	r4, r2
 810124e:	460e      	mov	r6, r1
 8101250:	1b73      	subs	r3, r6, r5
 8101252:	429c      	cmp	r4, r3
 8101254:	dc01      	bgt.n	810125a <_write+0x12>
 8101256:	4620      	mov	r0, r4
 8101258:	bd70      	pop	{r4, r5, r6, pc}
 810125a:	f816 0b01 	ldrb.w	r0, [r6], #1
 810125e:	f7ff f859 	bl	8100314 <__io_putchar>
 8101262:	e7f5      	b.n	8101250 <_write+0x8>

08101264 <_close>:
 8101264:	f04f 30ff 	mov.w	r0, #4294967295
 8101268:	4770      	bx	lr

0810126a <_fstat>:
 810126a:	f44f 5300 	mov.w	r3, #8192	@ 0x2000
 810126e:	604b      	str	r3, [r1, #4]
 8101270:	2000      	movs	r0, #0
 8101272:	4770      	bx	lr

08101274 <_isatty>:
 8101274:	2001      	movs	r0, #1
 8101276:	4770      	bx	lr

08101278 <_lseek>:
 8101278:	2000      	movs	r0, #0
 810127a:	4770      	bx	lr

0810127c <_sbrk>:
 810127c:	4a0b      	ldr	r2, [pc, #44]	@ (81012ac <_sbrk+0x30>)
 810127e:	6811      	ldr	r1, [r2, #0]
 8101280:	b510      	push	{r4, lr}
 8101282:	4603      	mov	r3, r0
 8101284:	b909      	cbnz	r1, 810128a <_sbrk+0xe>
 8101286:	490a      	ldr	r1, [pc, #40]	@ (81012b0 <_sbrk+0x34>)
 8101288:	6011      	str	r1, [r2, #0]
 810128a:	6810      	ldr	r0, [r2, #0]
 810128c:	4909      	ldr	r1, [pc, #36]	@ (81012b4 <_sbrk+0x38>)
 810128e:	4c0a      	ldr	r4, [pc, #40]	@ (81012b8 <_sbrk+0x3c>)
 8101290:	4403      	add	r3, r0
 8101292:	1b09      	subs	r1, r1, r4
 8101294:	428b      	cmp	r3, r1
 8101296:	d906      	bls.n	81012a6 <_sbrk+0x2a>
 8101298:	f003 fc02 	bl	8104aa0 <__errno>
 810129c:	230c      	movs	r3, #12
 810129e:	6003      	str	r3, [r0, #0]
 81012a0:	f04f 30ff 	mov.w	r0, #4294967295
 81012a4:	bd10      	pop	{r4, pc}
 81012a6:	6013      	str	r3, [r2, #0]
 81012a8:	e7fc      	b.n	81012a4 <_sbrk+0x28>
 81012aa:	bf00      	nop
 81012ac:	100009f0 	.word	0x100009f0
 81012b0:	10000fd0 	.word	0x10000fd0
 81012b4:	10048000 	.word	0x10048000
 81012b8:	00000400 	.word	0x00000400

081012bc <Reset_Handler>:
 81012bc:	f8df d038 	ldr.w	sp, [pc, #56]	@ 81012f8 <LoopFillZerobss+0xe>
 81012c0:	f7ff f81c 	bl	81002fc <ExitRun0Mode>
 81012c4:	f7ff f80c 	bl	81002e0 <SystemInit>
 81012c8:	480c      	ldr	r0, [pc, #48]	@ (81012fc <LoopFillZerobss+0x12>)
 81012ca:	490d      	ldr	r1, [pc, #52]	@ (8101300 <LoopFillZerobss+0x16>)
 81012cc:	4a0d      	ldr	r2, [pc, #52]	@ (8101304 <LoopFillZerobss+0x1a>)
 81012ce:	2300      	movs	r3, #0
 81012d0:	e002      	b.n	81012d8 <LoopCopyDataInit>

081012d2 <CopyDataInit>:
 81012d2:	58d4      	ldr	r4, [r2, r3]
 81012d4:	50c4      	str	r4, [r0, r3]
 81012d6:	3304      	adds	r3, #4

081012d8 <LoopCopyDataInit>:
 81012d8:	18c4      	adds	r4, r0, r3
 81012da:	428c      	cmp	r4, r1
 81012dc:	d3f9      	bcc.n	81012d2 <CopyDataInit>
 81012de:	4a0a      	ldr	r2, [pc, #40]	@ (8101308 <LoopFillZerobss+0x1e>)
 81012e0:	4c0a      	ldr	r4, [pc, #40]	@ (810130c <LoopFillZerobss+0x22>)
 81012e2:	2300      	movs	r3, #0
 81012e4:	e001      	b.n	81012ea <LoopFillZerobss>

081012e6 <FillZerobss>:
 81012e6:	6013      	str	r3, [r2, #0]
 81012e8:	3204      	adds	r2, #4

081012ea <LoopFillZerobss>:
 81012ea:	42a2      	cmp	r2, r4
 81012ec:	d3fb      	bcc.n	81012e6 <FillZerobss>
 81012ee:	f003 fbdd 	bl	8104aac <__libc_init_array>
 81012f2:	f7ff f821 	bl	8100338 <main>
 81012f6:	4770      	bx	lr
 81012f8:	10048000 	.word	0x10048000
 81012fc:	10000000 	.word	0x10000000
 8101300:	1000006c 	.word	0x1000006c
 8101304:	08104fb0 	.word	0x08104fb0
 8101308:	1000006c 	.word	0x1000006c
 810130c:	10000fd0 	.word	0x10000fd0

08101310 <ADC3_IRQHandler>:
 8101310:	e7fe      	b.n	8101310 <ADC3_IRQHandler>
	...

08101314 <HAL_Init>:
 8101314:	b513      	push	{r0, r1, r4, lr}
 8101316:	4c20      	ldr	r4, [pc, #128]	@ (8101398 <HAL_Init+0x84>)
 8101318:	4a20      	ldr	r2, [pc, #128]	@ (810139c <HAL_Init+0x88>)
 810131a:	f8d4 30d8 	ldr.w	r3, [r4, #216]	@ 0xd8
 810131e:	f443 4380 	orr.w	r3, r3, #16384	@ 0x4000
 8101322:	f8c4 30d8 	str.w	r3, [r4, #216]	@ 0xd8
 8101326:	f8d4 30d8 	ldr.w	r3, [r4, #216]	@ 0xd8
 810132a:	f403 4380 	and.w	r3, r3, #16384	@ 0x4000
 810132e:	9301      	str	r3, [sp, #4]
 8101330:	9b01      	ldr	r3, [sp, #4]
 8101332:	f8d2 3400 	ldr.w	r3, [r2, #1024]	@ 0x400
 8101336:	f36f 2313 	bfc	r3, #8, #12
 810133a:	f443 4301 	orr.w	r3, r3, #33024	@ 0x8100
 810133e:	f8c2 3400 	str.w	r3, [r2, #1024]	@ 0x400
 8101342:	f8d2 3400 	ldr.w	r3, [r2, #1024]	@ 0x400
 8101346:	f043 0301 	orr.w	r3, r3, #1
 810134a:	f8c2 3400 	str.w	r3, [r2, #1024]	@ 0x400
 810134e:	2003      	movs	r0, #3
 8101350:	f000 f914 	bl	810157c <HAL_NVIC_SetPriorityGrouping>
 8101354:	f000 fb46 	bl	81019e4 <HAL_RCC_GetSysClockFreq>
 8101358:	69a2      	ldr	r2, [r4, #24]
 810135a:	69a3      	ldr	r3, [r4, #24]
 810135c:	4910      	ldr	r1, [pc, #64]	@ (81013a0 <HAL_Init+0x8c>)
 810135e:	f3c2 2203 	ubfx	r2, r2, #8, #4
 8101362:	f003 030f 	and.w	r3, r3, #15
 8101366:	5c8a      	ldrb	r2, [r1, r2]
 8101368:	5ccb      	ldrb	r3, [r1, r3]
 810136a:	f002 021f 	and.w	r2, r2, #31
 810136e:	40d0      	lsrs	r0, r2
 8101370:	f003 031f 	and.w	r3, r3, #31
 8101374:	40d8      	lsrs	r0, r3
 8101376:	4b0b      	ldr	r3, [pc, #44]	@ (81013a4 <HAL_Init+0x90>)
 8101378:	6018      	str	r0, [r3, #0]
 810137a:	4b0b      	ldr	r3, [pc, #44]	@ (81013a8 <HAL_Init+0x94>)
 810137c:	6018      	str	r0, [r3, #0]
 810137e:	200f      	movs	r0, #15
 8101380:	f7ff fef2 	bl	8101168 <HAL_InitTick>
 8101384:	4604      	mov	r4, r0
 8101386:	b920      	cbnz	r0, 8101392 <HAL_Init+0x7e>
 8101388:	f7ff fb70 	bl	8100a6c <HAL_MspInit>
 810138c:	4620      	mov	r0, r4
 810138e:	b002      	add	sp, #8
 8101390:	bd10      	pop	{r4, pc}
 8101392:	2401      	movs	r4, #1
 8101394:	e7fa      	b.n	810138c <HAL_Init+0x78>
 8101396:	bf00      	nop
 8101398:	58024400 	.word	0x58024400
 810139c:	40024000 	.word	0x40024000
 81013a0:	08104f84 	.word	0x08104f84
 81013a4:	10000000 	.word	0x10000000
 81013a8:	10000004 	.word	0x10000004

081013ac <HAL_IncTick>:
 81013ac:	4a03      	ldr	r2, [pc, #12]	@ (81013bc <HAL_IncTick+0x10>)
 81013ae:	4b04      	ldr	r3, [pc, #16]	@ (81013c0 <HAL_IncTick+0x14>)
 81013b0:	6811      	ldr	r1, [r2, #0]
 81013b2:	781b      	ldrb	r3, [r3, #0]
 81013b4:	440b      	add	r3, r1
 81013b6:	6013      	str	r3, [r2, #0]
 81013b8:	4770      	bx	lr
 81013ba:	bf00      	nop
 81013bc:	100009f4 	.word	0x100009f4
 81013c0:	10000008 	.word	0x10000008

081013c4 <HAL_GetTick>:
 81013c4:	4b01      	ldr	r3, [pc, #4]	@ (81013cc <HAL_GetTick+0x8>)
 81013c6:	6818      	ldr	r0, [r3, #0]
 81013c8:	4770      	bx	lr
 81013ca:	bf00      	nop
 81013cc:	100009f4 	.word	0x100009f4

081013d0 <HAL_Delay>:
 81013d0:	b538      	push	{r3, r4, r5, lr}
 81013d2:	4604      	mov	r4, r0
 81013d4:	f7ff fff6 	bl	81013c4 <HAL_GetTick>
 81013d8:	1c63      	adds	r3, r4, #1
 81013da:	bf1c      	itt	ne
 81013dc:	4b05      	ldrne	r3, [pc, #20]	@ (81013f4 <HAL_Delay+0x24>)
 81013de:	781b      	ldrbne	r3, [r3, #0]
 81013e0:	4605      	mov	r5, r0
 81013e2:	bf18      	it	ne
 81013e4:	18e4      	addne	r4, r4, r3
 81013e6:	f7ff ffed 	bl	81013c4 <HAL_GetTick>
 81013ea:	1b43      	subs	r3, r0, r5
 81013ec:	42a3      	cmp	r3, r4
 81013ee:	d3fa      	bcc.n	81013e6 <HAL_Delay+0x16>
 81013f0:	bd38      	pop	{r3, r4, r5, pc}
 81013f2:	bf00      	nop
 81013f4:	10000008 	.word	0x10000008

081013f8 <HAL_GetREVID>:
 81013f8:	4b01      	ldr	r3, [pc, #4]	@ (8101400 <HAL_GetREVID+0x8>)
 81013fa:	6818      	ldr	r0, [r3, #0]
 81013fc:	0c00      	lsrs	r0, r0, #16
 81013fe:	4770      	bx	lr
 8101400:	5c001000 	.word	0x5c001000

08101404 <HAL_SYSCFG_AnalogSwitchConfig>:
 8101404:	4a03      	ldr	r2, [pc, #12]	@ (8101414 <HAL_SYSCFG_AnalogSwitchConfig+0x10>)
 8101406:	6853      	ldr	r3, [r2, #4]
 8101408:	ea23 0300 	bic.w	r3, r3, r0
 810140c:	430b      	orrs	r3, r1
 810140e:	6053      	str	r3, [r2, #4]
 8101410:	4770      	bx	lr
 8101412:	bf00      	nop
 8101414:	58000400 	.word	0x58000400

08101418 <HAL_CEC_Init>:
 8101418:	b510      	push	{r4, lr}
 810141a:	4604      	mov	r4, r0
 810141c:	2800      	cmp	r0, #0
 810141e:	d02f      	beq.n	8101480 <HAL_CEC_Init+0x68>
 8101420:	6a83      	ldr	r3, [r0, #40]	@ 0x28
 8101422:	b36b      	cbz	r3, 8101480 <HAL_CEC_Init+0x68>
 8101424:	6b83      	ldr	r3, [r0, #56]	@ 0x38
 8101426:	b91b      	cbnz	r3, 8101430 <HAL_CEC_Init+0x18>
 8101428:	f880 3034 	strb.w	r3, [r0, #52]	@ 0x34
 810142c:	f7ff fb36 	bl	8100a9c <HAL_CEC_MspInit>
 8101430:	6822      	ldr	r2, [r4, #0]
 8101432:	6813      	ldr	r3, [r2, #0]
 8101434:	f023 0301 	bic.w	r3, r3, #1
 8101438:	6013      	str	r3, [r2, #0]
 810143a:	e9d4 3101 	ldrd	r3, r1, [r4, #4]
 810143e:	430b      	orrs	r3, r1
 8101440:	68e1      	ldr	r1, [r4, #12]
 8101442:	430b      	orrs	r3, r1
 8101444:	6921      	ldr	r1, [r4, #16]
 8101446:	430b      	orrs	r3, r1
 8101448:	6961      	ldr	r1, [r4, #20]
 810144a:	430b      	orrs	r3, r1
 810144c:	69a1      	ldr	r1, [r4, #24]
 810144e:	430b      	orrs	r3, r1
 8101450:	69e1      	ldr	r1, [r4, #28]
 8101452:	430b      	orrs	r3, r1
 8101454:	6a21      	ldr	r1, [r4, #32]
 8101456:	430b      	orrs	r3, r1
 8101458:	8ca1      	ldrh	r1, [r4, #36]	@ 0x24
 810145a:	ea43 4301 	orr.w	r3, r3, r1, lsl #16
 810145e:	6053      	str	r3, [r2, #4]
 8101460:	6953      	ldr	r3, [r2, #20]
 8101462:	ea6f 3353 	mvn.w	r3, r3, lsr #13
 8101466:	ea6f 3343 	mvn.w	r3, r3, lsl #13
 810146a:	6153      	str	r3, [r2, #20]
 810146c:	6813      	ldr	r3, [r2, #0]
 810146e:	f043 0301 	orr.w	r3, r3, #1
 8101472:	6013      	str	r3, [r2, #0]
 8101474:	2320      	movs	r3, #32
 8101476:	e9c4 330e 	strd	r3, r3, [r4, #56]	@ 0x38
 810147a:	2000      	movs	r0, #0
 810147c:	6420      	str	r0, [r4, #64]	@ 0x40
 810147e:	bd10      	pop	{r4, pc}
 8101480:	2001      	movs	r0, #1
 8101482:	e7fc      	b.n	810147e <HAL_CEC_Init+0x66>

08101484 <HAL_CEC_TxCpltCallback>:
 8101484:	4770      	bx	lr

08101486 <HAL_CEC_RxCpltCallback>:
 8101486:	4770      	bx	lr

08101488 <HAL_CEC_ErrorCallback>:
 8101488:	4770      	bx	lr

0810148a <HAL_CEC_IRQHandler>:
 810148a:	b5f8      	push	{r3, r4, r5, r6, r7, lr}
 810148c:	6803      	ldr	r3, [r0, #0]
 810148e:	691d      	ldr	r5, [r3, #16]
 8101490:	f015 0680 	ands.w	r6, r5, #128	@ 0x80
 8101494:	4604      	mov	r4, r0
 8101496:	d005      	beq.n	81014a4 <HAL_CEC_IRQHandler+0x1a>
 8101498:	2280      	movs	r2, #128	@ 0x80
 810149a:	6402      	str	r2, [r0, #64]	@ 0x40
 810149c:	691a      	ldr	r2, [r3, #16]
 810149e:	f042 0280 	orr.w	r2, r2, #128	@ 0x80
 81014a2:	611a      	str	r2, [r3, #16]
 81014a4:	07e8      	lsls	r0, r5, #31
 81014a6:	d50f      	bpl.n	81014c8 <HAL_CEC_IRQHandler+0x3e>
 81014a8:	2222      	movs	r2, #34	@ 0x22
 81014aa:	63e2      	str	r2, [r4, #60]	@ 0x3c
 81014ac:	8e62      	ldrh	r2, [r4, #50]	@ 0x32
 81014ae:	3201      	adds	r2, #1
 81014b0:	8662      	strh	r2, [r4, #50]	@ 0x32
 81014b2:	68da      	ldr	r2, [r3, #12]
 81014b4:	6aa3      	ldr	r3, [r4, #40]	@ 0x28
 81014b6:	701a      	strb	r2, [r3, #0]
 81014b8:	6aa3      	ldr	r3, [r4, #40]	@ 0x28
 81014ba:	6822      	ldr	r2, [r4, #0]
 81014bc:	3301      	adds	r3, #1
 81014be:	62a3      	str	r3, [r4, #40]	@ 0x28
 81014c0:	6913      	ldr	r3, [r2, #16]
 81014c2:	f043 0301 	orr.w	r3, r3, #1
 81014c6:	6113      	str	r3, [r2, #16]
 81014c8:	07a9      	lsls	r1, r5, #30
 81014ca:	d510      	bpl.n	81014ee <HAL_CEC_IRQHandler+0x64>
 81014cc:	6822      	ldr	r2, [r4, #0]
 81014ce:	8e61      	ldrh	r1, [r4, #50]	@ 0x32
 81014d0:	6913      	ldr	r3, [r2, #16]
 81014d2:	f043 0302 	orr.w	r3, r3, #2
 81014d6:	6113      	str	r3, [r2, #16]
 81014d8:	2700      	movs	r7, #0
 81014da:	2320      	movs	r3, #32
 81014dc:	e9c4 370f 	strd	r3, r7, [r4, #60]	@ 0x3c
 81014e0:	6aa3      	ldr	r3, [r4, #40]	@ 0x28
 81014e2:	1a5b      	subs	r3, r3, r1
 81014e4:	62a3      	str	r3, [r4, #40]	@ 0x28
 81014e6:	4620      	mov	r0, r4
 81014e8:	f7ff ffcd 	bl	8101486 <HAL_CEC_RxCpltCallback>
 81014ec:	8667      	strh	r7, [r4, #50]	@ 0x32
 81014ee:	05ea      	lsls	r2, r5, #23
 81014f0:	d512      	bpl.n	8101518 <HAL_CEC_IRQHandler+0x8e>
 81014f2:	8e23      	ldrh	r3, [r4, #48]	@ 0x30
 81014f4:	6822      	ldr	r2, [r4, #0]
 81014f6:	3b01      	subs	r3, #1
 81014f8:	b29b      	uxth	r3, r3
 81014fa:	8623      	strh	r3, [r4, #48]	@ 0x30
 81014fc:	b91b      	cbnz	r3, 8101506 <HAL_CEC_IRQHandler+0x7c>
 81014fe:	6813      	ldr	r3, [r2, #0]
 8101500:	f043 0304 	orr.w	r3, r3, #4
 8101504:	6013      	str	r3, [r2, #0]
 8101506:	6ae3      	ldr	r3, [r4, #44]	@ 0x2c
 8101508:	f813 1b01 	ldrb.w	r1, [r3], #1
 810150c:	6091      	str	r1, [r2, #8]
 810150e:	62e3      	str	r3, [r4, #44]	@ 0x2c
 8101510:	6913      	ldr	r3, [r2, #16]
 8101512:	f443 7380 	orr.w	r3, r3, #256	@ 0x100
 8101516:	6113      	str	r3, [r2, #16]
 8101518:	05ab      	lsls	r3, r5, #22
 810151a:	d50d      	bpl.n	8101538 <HAL_CEC_IRQHandler+0xae>
 810151c:	6822      	ldr	r2, [r4, #0]
 810151e:	6913      	ldr	r3, [r2, #16]
 8101520:	f443 7300 	orr.w	r3, r3, #512	@ 0x200
 8101524:	6113      	str	r3, [r2, #16]
 8101526:	2320      	movs	r3, #32
 8101528:	63a3      	str	r3, [r4, #56]	@ 0x38
 810152a:	2300      	movs	r3, #0
 810152c:	f884 3034 	strb.w	r3, [r4, #52]	@ 0x34
 8101530:	6423      	str	r3, [r4, #64]	@ 0x40
 8101532:	4620      	mov	r0, r4
 8101534:	f7ff ffa6 	bl	8101484 <HAL_CEC_TxCpltCallback>
 8101538:	f641 417c 	movw	r1, #7292	@ 0x1c7c
 810153c:	420d      	tst	r5, r1
 810153e:	d013      	beq.n	8101568 <HAL_CEC_IRQHandler+0xde>
 8101540:	6822      	ldr	r2, [r4, #0]
 8101542:	6425      	str	r5, [r4, #64]	@ 0x40
 8101544:	6913      	ldr	r3, [r2, #16]
 8101546:	f015 0f7c 	tst.w	r5, #124	@ 0x7c
 810154a:	ea43 0301 	orr.w	r3, r3, r1
 810154e:	6113      	str	r3, [r2, #16]
 8101550:	d00b      	beq.n	810156a <HAL_CEC_IRQHandler+0xe0>
 8101552:	8e62      	ldrh	r2, [r4, #50]	@ 0x32
 8101554:	6aa3      	ldr	r3, [r4, #40]	@ 0x28
 8101556:	1a9b      	subs	r3, r3, r2
 8101558:	62a3      	str	r3, [r4, #40]	@ 0x28
 810155a:	2300      	movs	r3, #0
 810155c:	8663      	strh	r3, [r4, #50]	@ 0x32
 810155e:	2320      	movs	r3, #32
 8101560:	63e3      	str	r3, [r4, #60]	@ 0x3c
 8101562:	4620      	mov	r0, r4
 8101564:	f7ff ff90 	bl	8101488 <HAL_CEC_ErrorCallback>
 8101568:	bdf8      	pop	{r3, r4, r5, r6, r7, pc}
 810156a:	2e00      	cmp	r6, #0
 810156c:	d1f9      	bne.n	8101562 <HAL_CEC_IRQHandler+0xd8>
 810156e:	f415 5fe0 	tst.w	r5, #7168	@ 0x1c00
 8101572:	bf1c      	itt	ne
 8101574:	2320      	movne	r3, #32
 8101576:	63a3      	strne	r3, [r4, #56]	@ 0x38
 8101578:	e7f3      	b.n	8101562 <HAL_CEC_IRQHandler+0xd8>
	...

0810157c <HAL_NVIC_SetPriorityGrouping>:
 810157c:	4907      	ldr	r1, [pc, #28]	@ (810159c <HAL_NVIC_SetPriorityGrouping+0x20>)
 810157e:	68ca      	ldr	r2, [r1, #12]
 8101580:	f422 62e0 	bic.w	r2, r2, #1792	@ 0x700
 8101584:	0203      	lsls	r3, r0, #8
 8101586:	0412      	lsls	r2, r2, #16
 8101588:	f403 63e0 	and.w	r3, r3, #1792	@ 0x700
 810158c:	0c12      	lsrs	r2, r2, #16
 810158e:	4313      	orrs	r3, r2
 8101590:	f043 63bf 	orr.w	r3, r3, #100139008	@ 0x5f80000
 8101594:	f443 3300 	orr.w	r3, r3, #131072	@ 0x20000
 8101598:	60cb      	str	r3, [r1, #12]
 810159a:	4770      	bx	lr
 810159c:	e000ed00 	.word	0xe000ed00

081015a0 <HAL_NVIC_SetPriority>:
 81015a0:	4b16      	ldr	r3, [pc, #88]	@ (81015fc <HAL_NVIC_SetPriority+0x5c>)
 81015a2:	b530      	push	{r4, r5, lr}
 81015a4:	68dc      	ldr	r4, [r3, #12]
 81015a6:	f3c4 2402 	ubfx	r4, r4, #8, #3
 81015aa:	f1c4 0307 	rsb	r3, r4, #7
 81015ae:	1d25      	adds	r5, r4, #4
 81015b0:	2b04      	cmp	r3, #4
 81015b2:	bf28      	it	cs
 81015b4:	2304      	movcs	r3, #4
 81015b6:	2d06      	cmp	r5, #6
 81015b8:	f04f 35ff 	mov.w	r5, #4294967295
 81015bc:	bf8c      	ite	hi
 81015be:	3c03      	subhi	r4, #3
 81015c0:	2400      	movls	r4, #0
 81015c2:	fa05 f303 	lsl.w	r3, r5, r3
 81015c6:	ea21 0303 	bic.w	r3, r1, r3
 81015ca:	40a5      	lsls	r5, r4
 81015cc:	ea22 0205 	bic.w	r2, r2, r5
 81015d0:	40a3      	lsls	r3, r4
 81015d2:	2800      	cmp	r0, #0
 81015d4:	ea43 0302 	orr.w	r3, r3, r2
 81015d8:	bfac      	ite	ge
 81015da:	f100 4060 	addge.w	r0, r0, #3758096384	@ 0xe0000000
 81015de:	4a08      	ldrlt	r2, [pc, #32]	@ (8101600 <HAL_NVIC_SetPriority+0x60>)
 81015e0:	ea4f 1303 	mov.w	r3, r3, lsl #4
 81015e4:	bfb8      	it	lt
 81015e6:	f000 000f 	andlt.w	r0, r0, #15
 81015ea:	b2db      	uxtb	r3, r3
 81015ec:	bfaa      	itet	ge
 81015ee:	f500 4061 	addge.w	r0, r0, #57600	@ 0xe100
 81015f2:	5413      	strblt	r3, [r2, r0]
 81015f4:	f880 3300 	strbge.w	r3, [r0, #768]	@ 0x300
 81015f8:	bd30      	pop	{r4, r5, pc}
 81015fa:	bf00      	nop
 81015fc:	e000ed00 	.word	0xe000ed00
 8101600:	e000ed14 	.word	0xe000ed14

08101604 <HAL_NVIC_EnableIRQ>:
 8101604:	2800      	cmp	r0, #0
 8101606:	db07      	blt.n	8101618 <HAL_NVIC_EnableIRQ+0x14>
 8101608:	4a04      	ldr	r2, [pc, #16]	@ (810161c <HAL_NVIC_EnableIRQ+0x18>)
 810160a:	0941      	lsrs	r1, r0, #5
 810160c:	2301      	movs	r3, #1
 810160e:	f000 001f 	and.w	r0, r0, #31
 8101612:	4083      	lsls	r3, r0
 8101614:	f842 3021 	str.w	r3, [r2, r1, lsl #2]
 8101618:	4770      	bx	lr
 810161a:	bf00      	nop
 810161c:	e000e100 	.word	0xe000e100

08101620 <HAL_GetCurrentCPUID>:
 8101620:	4b04      	ldr	r3, [pc, #16]	@ (8101634 <HAL_GetCurrentCPUID+0x14>)
 8101622:	681b      	ldr	r3, [r3, #0]
 8101624:	f003 03f0 	and.w	r3, r3, #240	@ 0xf0
 8101628:	2b70      	cmp	r3, #112	@ 0x70
 810162a:	bf14      	ite	ne
 810162c:	2001      	movne	r0, #1
 810162e:	2003      	moveq	r0, #3
 8101630:	4770      	bx	lr
 8101632:	bf00      	nop
 8101634:	e000ed00 	.word	0xe000ed00

08101638 <HAL_GPIO_Init>:
 8101638:	e92d 4ff7 	stmdb	sp!, {r0, r1, r2, r4, r5, r6, r7, r8, r9, sl, fp, lr}
 810163c:	f8df 91c0 	ldr.w	r9, [pc, #448]	@ 8101800 <HAL_GPIO_Init+0x1c8>
 8101640:	2300      	movs	r3, #0
 8101642:	f04f 44b0 	mov.w	r4, #1476395008	@ 0x58000000
 8101646:	680a      	ldr	r2, [r1, #0]
 8101648:	fa32 f503 	lsrs.w	r5, r2, r3
 810164c:	d102      	bne.n	8101654 <HAL_GPIO_Init+0x1c>
 810164e:	b003      	add	sp, #12
 8101650:	e8bd 8ff0 	ldmia.w	sp!, {r4, r5, r6, r7, r8, r9, sl, fp, pc}
 8101654:	2501      	movs	r5, #1
 8101656:	fa05 f803 	lsl.w	r8, r5, r3
 810165a:	ea18 0202 	ands.w	r2, r8, r2
 810165e:	f000 80b9 	beq.w	81017d4 <HAL_GPIO_Init+0x19c>
 8101662:	684e      	ldr	r6, [r1, #4]
 8101664:	2703      	movs	r7, #3
 8101666:	f006 0503 	and.w	r5, r6, #3
 810166a:	ea4f 0e43 	mov.w	lr, r3, lsl #1
 810166e:	fa07 fc0e 	lsl.w	ip, r7, lr
 8101672:	1e6f      	subs	r7, r5, #1
 8101674:	2f01      	cmp	r7, #1
 8101676:	ea6f 0c0c 	mvn.w	ip, ip
 810167a:	d834      	bhi.n	81016e6 <HAL_GPIO_Init+0xae>
 810167c:	6887      	ldr	r7, [r0, #8]
 810167e:	ea07 0a0c 	and.w	sl, r7, ip
 8101682:	68cf      	ldr	r7, [r1, #12]
 8101684:	fa07 f70e 	lsl.w	r7, r7, lr
 8101688:	ea47 070a 	orr.w	r7, r7, sl
 810168c:	6087      	str	r7, [r0, #8]
 810168e:	6847      	ldr	r7, [r0, #4]
 8101690:	ea27 0808 	bic.w	r8, r7, r8
 8101694:	f3c6 1700 	ubfx	r7, r6, #4, #1
 8101698:	409f      	lsls	r7, r3
 810169a:	ea47 0708 	orr.w	r7, r7, r8
 810169e:	6047      	str	r7, [r0, #4]
 81016a0:	68c7      	ldr	r7, [r0, #12]
 81016a2:	ea07 080c 	and.w	r8, r7, ip
 81016a6:	688f      	ldr	r7, [r1, #8]
 81016a8:	fa07 f70e 	lsl.w	r7, r7, lr
 81016ac:	ea47 0708 	orr.w	r7, r7, r8
 81016b0:	2d02      	cmp	r5, #2
 81016b2:	60c7      	str	r7, [r0, #12]
 81016b4:	d119      	bne.n	81016ea <HAL_GPIO_Init+0xb2>
 81016b6:	ea4f 08d3 	mov.w	r8, r3, lsr #3
 81016ba:	eb00 0888 	add.w	r8, r0, r8, lsl #2
 81016be:	f003 0a07 	and.w	sl, r3, #7
 81016c2:	f8d8 7020 	ldr.w	r7, [r8, #32]
 81016c6:	ea4f 0a8a 	mov.w	sl, sl, lsl #2
 81016ca:	f04f 0b0f 	mov.w	fp, #15
 81016ce:	fa0b fb0a 	lsl.w	fp, fp, sl
 81016d2:	ea27 0b0b 	bic.w	fp, r7, fp
 81016d6:	690f      	ldr	r7, [r1, #16]
 81016d8:	fa07 f70a 	lsl.w	r7, r7, sl
 81016dc:	ea47 070b 	orr.w	r7, r7, fp
 81016e0:	f8c8 7020 	str.w	r7, [r8, #32]
 81016e4:	e001      	b.n	81016ea <HAL_GPIO_Init+0xb2>
 81016e6:	2d03      	cmp	r5, #3
 81016e8:	d1da      	bne.n	81016a0 <HAL_GPIO_Init+0x68>
 81016ea:	6807      	ldr	r7, [r0, #0]
 81016ec:	fa05 f50e 	lsl.w	r5, r5, lr
 81016f0:	ea07 070c 	and.w	r7, r7, ip
 81016f4:	433d      	orrs	r5, r7
 81016f6:	f416 3f40 	tst.w	r6, #196608	@ 0x30000
 81016fa:	6005      	str	r5, [r0, #0]
 81016fc:	d06a      	beq.n	81017d4 <HAL_GPIO_Init+0x19c>
 81016fe:	f8d9 50f4 	ldr.w	r5, [r9, #244]	@ 0xf4
 8101702:	f045 0502 	orr.w	r5, r5, #2
 8101706:	f8c9 50f4 	str.w	r5, [r9, #244]	@ 0xf4
 810170a:	f8d9 50f4 	ldr.w	r5, [r9, #244]	@ 0xf4
 810170e:	f023 0703 	bic.w	r7, r3, #3
 8101712:	f107 47b0 	add.w	r7, r7, #1476395008	@ 0x58000000
 8101716:	f005 0502 	and.w	r5, r5, #2
 810171a:	f507 6780 	add.w	r7, r7, #1024	@ 0x400
 810171e:	9501      	str	r5, [sp, #4]
 8101720:	f003 0c03 	and.w	ip, r3, #3
 8101724:	9d01      	ldr	r5, [sp, #4]
 8101726:	68bd      	ldr	r5, [r7, #8]
 8101728:	ea4f 0c8c 	mov.w	ip, ip, lsl #2
 810172c:	f04f 0e0f 	mov.w	lr, #15
 8101730:	fa0e fe0c 	lsl.w	lr, lr, ip
 8101734:	ea25 0e0e 	bic.w	lr, r5, lr
 8101738:	4d30      	ldr	r5, [pc, #192]	@ (81017fc <HAL_GPIO_Init+0x1c4>)
 810173a:	42a8      	cmp	r0, r5
 810173c:	d04c      	beq.n	81017d8 <HAL_GPIO_Init+0x1a0>
 810173e:	f505 6580 	add.w	r5, r5, #1024	@ 0x400
 8101742:	42a8      	cmp	r0, r5
 8101744:	d04a      	beq.n	81017dc <HAL_GPIO_Init+0x1a4>
 8101746:	f505 6580 	add.w	r5, r5, #1024	@ 0x400
 810174a:	42a8      	cmp	r0, r5
 810174c:	d048      	beq.n	81017e0 <HAL_GPIO_Init+0x1a8>
 810174e:	f505 6580 	add.w	r5, r5, #1024	@ 0x400
 8101752:	42a8      	cmp	r0, r5
 8101754:	d046      	beq.n	81017e4 <HAL_GPIO_Init+0x1ac>
 8101756:	f505 6580 	add.w	r5, r5, #1024	@ 0x400
 810175a:	42a8      	cmp	r0, r5
 810175c:	d044      	beq.n	81017e8 <HAL_GPIO_Init+0x1b0>
 810175e:	f505 6580 	add.w	r5, r5, #1024	@ 0x400
 8101762:	42a8      	cmp	r0, r5
 8101764:	d042      	beq.n	81017ec <HAL_GPIO_Init+0x1b4>
 8101766:	f505 6580 	add.w	r5, r5, #1024	@ 0x400
 810176a:	42a8      	cmp	r0, r5
 810176c:	d040      	beq.n	81017f0 <HAL_GPIO_Init+0x1b8>
 810176e:	f505 6580 	add.w	r5, r5, #1024	@ 0x400
 8101772:	42a8      	cmp	r0, r5
 8101774:	d03e      	beq.n	81017f4 <HAL_GPIO_Init+0x1bc>
 8101776:	f505 6580 	add.w	r5, r5, #1024	@ 0x400
 810177a:	42a8      	cmp	r0, r5
 810177c:	d03c      	beq.n	81017f8 <HAL_GPIO_Init+0x1c0>
 810177e:	f505 6580 	add.w	r5, r5, #1024	@ 0x400
 8101782:	42a8      	cmp	r0, r5
 8101784:	bf14      	ite	ne
 8101786:	250a      	movne	r5, #10
 8101788:	2509      	moveq	r5, #9
 810178a:	fa05 f50c 	lsl.w	r5, r5, ip
 810178e:	ea45 050e 	orr.w	r5, r5, lr
 8101792:	60bd      	str	r5, [r7, #8]
 8101794:	6825      	ldr	r5, [r4, #0]
 8101796:	43d7      	mvns	r7, r2
 8101798:	f416 1f80 	tst.w	r6, #1048576	@ 0x100000
 810179c:	bf0c      	ite	eq
 810179e:	403d      	andeq	r5, r7
 81017a0:	4315      	orrne	r5, r2
 81017a2:	6025      	str	r5, [r4, #0]
 81017a4:	6865      	ldr	r5, [r4, #4]
 81017a6:	f416 1f00 	tst.w	r6, #2097152	@ 0x200000
 81017aa:	bf0c      	ite	eq
 81017ac:	403d      	andeq	r5, r7
 81017ae:	4315      	orrne	r5, r2
 81017b0:	6065      	str	r5, [r4, #4]
 81017b2:	f8d4 50c4 	ldr.w	r5, [r4, #196]	@ 0xc4
 81017b6:	f416 3f00 	tst.w	r6, #131072	@ 0x20000
 81017ba:	bf0c      	ite	eq
 81017bc:	403d      	andeq	r5, r7
 81017be:	4315      	orrne	r5, r2
 81017c0:	f8c4 50c4 	str.w	r5, [r4, #196]	@ 0xc4
 81017c4:	f8d4 50c0 	ldr.w	r5, [r4, #192]	@ 0xc0
 81017c8:	03f6      	lsls	r6, r6, #15
 81017ca:	bf54      	ite	pl
 81017cc:	403d      	andpl	r5, r7
 81017ce:	4315      	orrmi	r5, r2
 81017d0:	f8c4 50c0 	str.w	r5, [r4, #192]	@ 0xc0
 81017d4:	3301      	adds	r3, #1
 81017d6:	e736      	b.n	8101646 <HAL_GPIO_Init+0xe>
 81017d8:	2500      	movs	r5, #0
 81017da:	e7d6      	b.n	810178a <HAL_GPIO_Init+0x152>
 81017dc:	2501      	movs	r5, #1
 81017de:	e7d4      	b.n	810178a <HAL_GPIO_Init+0x152>
 81017e0:	2502      	movs	r5, #2
 81017e2:	e7d2      	b.n	810178a <HAL_GPIO_Init+0x152>
 81017e4:	2503      	movs	r5, #3
 81017e6:	e7d0      	b.n	810178a <HAL_GPIO_Init+0x152>
 81017e8:	2504      	movs	r5, #4
 81017ea:	e7ce      	b.n	810178a <HAL_GPIO_Init+0x152>
 81017ec:	2505      	movs	r5, #5
 81017ee:	e7cc      	b.n	810178a <HAL_GPIO_Init+0x152>
 81017f0:	2506      	movs	r5, #6
 81017f2:	e7ca      	b.n	810178a <HAL_GPIO_Init+0x152>
 81017f4:	2507      	movs	r5, #7
 81017f6:	e7c8      	b.n	810178a <HAL_GPIO_Init+0x152>
 81017f8:	2508      	movs	r5, #8
 81017fa:	e7c6      	b.n	810178a <HAL_GPIO_Init+0x152>
 81017fc:	58020000 	.word	0x58020000
 8101800:	58024400 	.word	0x58024400

08101804 <HAL_GPIO_WritePin>:
 8101804:	b10a      	cbz	r2, 810180a <HAL_GPIO_WritePin+0x6>
 8101806:	6181      	str	r1, [r0, #24]
 8101808:	4770      	bx	lr
 810180a:	0409      	lsls	r1, r1, #16
 810180c:	e7fb      	b.n	8101806 <HAL_GPIO_WritePin+0x2>

0810180e <HAL_GPIO_EXTI_IRQHandler>:
 810180e:	f04f 42b0 	mov.w	r2, #1476395008	@ 0x58000000
 8101812:	b508      	push	{r3, lr}
 8101814:	f8d2 10c8 	ldr.w	r1, [r2, #200]	@ 0xc8
 8101818:	4201      	tst	r1, r0
 810181a:	d003      	beq.n	8101824 <HAL_GPIO_EXTI_IRQHandler+0x16>
 810181c:	f8c2 00c8 	str.w	r0, [r2, #200]	@ 0xc8
 8101820:	f7fe fd88 	bl	8100334 <HAL_GPIO_EXTI_Callback>
 8101824:	bd08      	pop	{r3, pc}
	...

08101828 <HAL_HSEM_ActivateNotification>:
 8101828:	4a02      	ldr	r2, [pc, #8]	@ (8101834 <HAL_HSEM_ActivateNotification+0xc>)
 810182a:	6913      	ldr	r3, [r2, #16]
 810182c:	4303      	orrs	r3, r0
 810182e:	6113      	str	r3, [r2, #16]
 8101830:	4770      	bx	lr
 8101832:	bf00      	nop
 8101834:	58026500 	.word	0x58026500

08101838 <HAL_PCD_Init>:
 8101838:	b5f7      	push	{r0, r1, r2, r4, r5, r6, r7, lr}
 810183a:	4604      	mov	r4, r0
 810183c:	b1e0      	cbz	r0, 8101878 <HAL_PCD_Init+0x40>
 810183e:	f890 3495 	ldrb.w	r3, [r0, #1173]	@ 0x495
 8101842:	f003 02ff 	and.w	r2, r3, #255	@ 0xff
 8101846:	b91b      	cbnz	r3, 8101850 <HAL_PCD_Init+0x18>
 8101848:	f880 2494 	strb.w	r2, [r0, #1172]	@ 0x494
 810184c:	f7ff fb50 	bl	8100ef0 <HAL_PCD_MspInit>
 8101850:	2303      	movs	r3, #3
 8101852:	f884 3495 	strb.w	r3, [r4, #1173]	@ 0x495
 8101856:	6820      	ldr	r0, [r4, #0]
 8101858:	f002 fc1b 	bl	8104092 <USB_DisableGlobalInt>
 810185c:	7c23      	ldrb	r3, [r4, #16]
 810185e:	f88d 3000 	strb.w	r3, [sp]
 8101862:	1d25      	adds	r5, r4, #4
 8101864:	e895 000e 	ldmia.w	r5, {r1, r2, r3}
 8101868:	6820      	ldr	r0, [r4, #0]
 810186a:	f002 fbc5 	bl	8103ff8 <USB_CoreInit>
 810186e:	4601      	mov	r1, r0
 8101870:	b130      	cbz	r0, 8101880 <HAL_PCD_Init+0x48>
 8101872:	2302      	movs	r3, #2
 8101874:	f884 3495 	strb.w	r3, [r4, #1173]	@ 0x495
 8101878:	2501      	movs	r5, #1
 810187a:	4628      	mov	r0, r5
 810187c:	b003      	add	sp, #12
 810187e:	bdf0      	pop	{r4, r5, r6, r7, pc}
 8101880:	6820      	ldr	r0, [r4, #0]
 8101882:	f002 fc0c 	bl	810409e <USB_SetCurrentMode>
 8101886:	2800      	cmp	r0, #0
 8101888:	d1f3      	bne.n	8101872 <HAL_PCD_Init+0x3a>
 810188a:	7926      	ldrb	r6, [r4, #4]
 810188c:	f104 0314 	add.w	r3, r4, #20
 8101890:	2701      	movs	r7, #1
 8101892:	4602      	mov	r2, r0
 8101894:	b2c1      	uxtb	r1, r0
 8101896:	428e      	cmp	r6, r1
 8101898:	f103 0324 	add.w	r3, r3, #36	@ 0x24
 810189c:	d821      	bhi.n	81018e2 <HAL_PCD_Init+0xaa>
 810189e:	2100      	movs	r1, #0
 81018a0:	f504 7315 	add.w	r3, r4, #596	@ 0x254
 81018a4:	460a      	mov	r2, r1
 81018a6:	b2c8      	uxtb	r0, r1
 81018a8:	4286      	cmp	r6, r0
 81018aa:	f103 0324 	add.w	r3, r3, #36	@ 0x24
 81018ae:	d826      	bhi.n	81018fe <HAL_PCD_Init+0xc6>
 81018b0:	7c23      	ldrb	r3, [r4, #16]
 81018b2:	f88d 3000 	strb.w	r3, [sp]
 81018b6:	e895 000e 	ldmia.w	r5, {r1, r2, r3}
 81018ba:	6820      	ldr	r0, [r4, #0]
 81018bc:	f002 fc6a 	bl	8104194 <USB_DevInit>
 81018c0:	4605      	mov	r5, r0
 81018c2:	2800      	cmp	r0, #0
 81018c4:	d1d5      	bne.n	8101872 <HAL_PCD_Init+0x3a>
 81018c6:	2301      	movs	r3, #1
 81018c8:	7460      	strb	r0, [r4, #17]
 81018ca:	f884 3495 	strb.w	r3, [r4, #1173]	@ 0x495
 81018ce:	7b23      	ldrb	r3, [r4, #12]
 81018d0:	2b01      	cmp	r3, #1
 81018d2:	d102      	bne.n	81018da <HAL_PCD_Init+0xa2>
 81018d4:	4620      	mov	r0, r4
 81018d6:	f000 f81e 	bl	8101916 <HAL_PCDEx_ActivateLPM>
 81018da:	6820      	ldr	r0, [r4, #0]
 81018dc:	f002 fd12 	bl	8104304 <USB_DevDisconnect>
 81018e0:	e7cb      	b.n	810187a <HAL_PCD_Init+0x42>
 81018e2:	f823 0c0a 	strh.w	r0, [r3, #-10]
 81018e6:	e943 2207 	strd	r2, r2, [r3, #-28]
 81018ea:	f803 7c23 	strb.w	r7, [r3, #-35]
 81018ee:	f803 1c24 	strb.w	r1, [r3, #-36]
 81018f2:	f803 2c20 	strb.w	r2, [r3, #-32]
 81018f6:	f843 2c14 	str.w	r2, [r3, #-20]
 81018fa:	3001      	adds	r0, #1
 81018fc:	e7ca      	b.n	8101894 <HAL_PCD_Init+0x5c>
 81018fe:	e943 2207 	strd	r2, r2, [r3, #-28]
 8101902:	f803 2c23 	strb.w	r2, [r3, #-35]
 8101906:	f803 0c24 	strb.w	r0, [r3, #-36]
 810190a:	f803 2c20 	strb.w	r2, [r3, #-32]
 810190e:	f843 2c14 	str.w	r2, [r3, #-20]
 8101912:	3101      	adds	r1, #1
 8101914:	e7c7      	b.n	81018a6 <HAL_PCD_Init+0x6e>

08101916 <HAL_PCDEx_ActivateLPM>:
 8101916:	4603      	mov	r3, r0
 8101918:	2101      	movs	r1, #1
 810191a:	6802      	ldr	r2, [r0, #0]
 810191c:	f8c0 14d8 	str.w	r1, [r0, #1240]	@ 0x4d8
 8101920:	2000      	movs	r0, #0
 8101922:	f883 04cc 	strb.w	r0, [r3, #1228]	@ 0x4cc
 8101926:	6993      	ldr	r3, [r2, #24]
 8101928:	f043 6300 	orr.w	r3, r3, #134217728	@ 0x8000000
 810192c:	6193      	str	r3, [r2, #24]
 810192e:	6d53      	ldr	r3, [r2, #84]	@ 0x54
 8101930:	f043 5380 	orr.w	r3, r3, #268435456	@ 0x10000000
 8101934:	f043 0303 	orr.w	r3, r3, #3
 8101938:	6553      	str	r3, [r2, #84]	@ 0x54
 810193a:	4770      	bx	lr

0810193c <HAL_PWREx_EnterSTOPMode>:
 810193c:	b538      	push	{r3, r4, r5, lr}
 810193e:	4c1e      	ldr	r4, [pc, #120]	@ (81019b8 <HAL_PWREx_EnterSTOPMode+0x7c>)
 8101940:	6823      	ldr	r3, [r4, #0]
 8101942:	f023 0301 	bic.w	r3, r3, #1
 8101946:	4303      	orrs	r3, r0
 8101948:	460d      	mov	r5, r1
 810194a:	6023      	str	r3, [r4, #0]
 810194c:	b9c2      	cbnz	r2, 8101980 <HAL_PWREx_EnterSTOPMode+0x44>
 810194e:	f7ff fe67 	bl	8101620 <HAL_GetCurrentCPUID>
 8101952:	2803      	cmp	r0, #3
 8101954:	d113      	bne.n	810197e <HAL_PWREx_EnterSTOPMode+0x42>
 8101956:	6923      	ldr	r3, [r4, #16]
 8101958:	f023 0301 	bic.w	r3, r3, #1
 810195c:	6123      	str	r3, [r4, #16]
 810195e:	4b17      	ldr	r3, [pc, #92]	@ (81019bc <HAL_PWREx_EnterSTOPMode+0x80>)
 8101960:	691a      	ldr	r2, [r3, #16]
 8101962:	f042 0204 	orr.w	r2, r2, #4
 8101966:	611a      	str	r2, [r3, #16]
 8101968:	f3bf 8f4f 	dsb	sy
 810196c:	f3bf 8f6f 	isb	sy
 8101970:	2d01      	cmp	r5, #1
 8101972:	d110      	bne.n	8101996 <HAL_PWREx_EnterSTOPMode+0x5a>
 8101974:	bf30      	wfi
 8101976:	691a      	ldr	r2, [r3, #16]
 8101978:	f022 0204 	bic.w	r2, r2, #4
 810197c:	611a      	str	r2, [r3, #16]
 810197e:	bd38      	pop	{r3, r4, r5, pc}
 8101980:	2a01      	cmp	r2, #1
 8101982:	d10a      	bne.n	810199a <HAL_PWREx_EnterSTOPMode+0x5e>
 8101984:	f7ff fe4c 	bl	8101620 <HAL_GetCurrentCPUID>
 8101988:	2801      	cmp	r0, #1
 810198a:	d1f8      	bne.n	810197e <HAL_PWREx_EnterSTOPMode+0x42>
 810198c:	6963      	ldr	r3, [r4, #20]
 810198e:	f023 0302 	bic.w	r3, r3, #2
 8101992:	6163      	str	r3, [r4, #20]
 8101994:	e7e3      	b.n	810195e <HAL_PWREx_EnterSTOPMode+0x22>
 8101996:	bf20      	wfe
 8101998:	e7ed      	b.n	8101976 <HAL_PWREx_EnterSTOPMode+0x3a>
 810199a:	f7ff fe41 	bl	8101620 <HAL_GetCurrentCPUID>
 810199e:	2803      	cmp	r0, #3
 81019a0:	bf0b      	itete	eq
 81019a2:	6923      	ldreq	r3, [r4, #16]
 81019a4:	6963      	ldrne	r3, [r4, #20]
 81019a6:	f023 0304 	biceq.w	r3, r3, #4
 81019aa:	f023 0304 	bicne.w	r3, r3, #4
 81019ae:	bf0c      	ite	eq
 81019b0:	6123      	streq	r3, [r4, #16]
 81019b2:	6163      	strne	r3, [r4, #20]
 81019b4:	e7e3      	b.n	810197e <HAL_PWREx_EnterSTOPMode+0x42>
 81019b6:	bf00      	nop
 81019b8:	58024800 	.word	0x58024800
 81019bc:	e000ed00 	.word	0xe000ed00

081019c0 <HAL_PWREx_ClearPendingEvent>:
 81019c0:	b508      	push	{r3, lr}
 81019c2:	f7ff fe2d 	bl	8101620 <HAL_GetCurrentCPUID>
 81019c6:	2803      	cmp	r0, #3
 81019c8:	d101      	bne.n	81019ce <HAL_PWREx_ClearPendingEvent+0xe>
 81019ca:	bf20      	wfe
 81019cc:	bd08      	pop	{r3, pc}
 81019ce:	bf40      	sev
 81019d0:	e7fb      	b.n	81019ca <HAL_PWREx_ClearPendingEvent+0xa>
	...

081019d4 <HAL_PWREx_EnableUSBVoltageDetector>:
 81019d4:	4a02      	ldr	r2, [pc, #8]	@ (81019e0 <HAL_PWREx_EnableUSBVoltageDetector+0xc>)
 81019d6:	68d3      	ldr	r3, [r2, #12]
 81019d8:	f043 7380 	orr.w	r3, r3, #16777216	@ 0x1000000
 81019dc:	60d3      	str	r3, [r2, #12]
 81019de:	4770      	bx	lr
 81019e0:	58024800 	.word	0x58024800

081019e4 <HAL_RCC_GetSysClockFreq>:
 81019e4:	4b49      	ldr	r3, [pc, #292]	@ (8101b0c <HAL_RCC_GetSysClockFreq+0x128>)
 81019e6:	691a      	ldr	r2, [r3, #16]
 81019e8:	f002 0238 	and.w	r2, r2, #56	@ 0x38
 81019ec:	2a10      	cmp	r2, #16
 81019ee:	b530      	push	{r4, r5, lr}
 81019f0:	f000 8088 	beq.w	8101b04 <HAL_RCC_GetSysClockFreq+0x120>
 81019f4:	2a18      	cmp	r2, #24
 81019f6:	d00c      	beq.n	8101a12 <HAL_RCC_GetSysClockFreq+0x2e>
 81019f8:	2a00      	cmp	r2, #0
 81019fa:	f040 8085 	bne.w	8101b08 <HAL_RCC_GetSysClockFreq+0x124>
 81019fe:	681a      	ldr	r2, [r3, #0]
 8101a00:	4843      	ldr	r0, [pc, #268]	@ (8101b10 <HAL_RCC_GetSysClockFreq+0x12c>)
 8101a02:	f012 0f20 	tst.w	r2, #32
 8101a06:	d003      	beq.n	8101a10 <HAL_RCC_GetSysClockFreq+0x2c>
 8101a08:	681b      	ldr	r3, [r3, #0]
 8101a0a:	f3c3 03c1 	ubfx	r3, r3, #3, #2
 8101a0e:	40d8      	lsrs	r0, r3
 8101a10:	bd30      	pop	{r4, r5, pc}
 8101a12:	6a99      	ldr	r1, [r3, #40]	@ 0x28
 8101a14:	6a9d      	ldr	r5, [r3, #40]	@ 0x28
 8101a16:	6adc      	ldr	r4, [r3, #44]	@ 0x2c
 8101a18:	6b5a      	ldr	r2, [r3, #52]	@ 0x34
 8101a1a:	f415 7f7c 	tst.w	r5, #1008	@ 0x3f0
 8101a1e:	f3c5 1005 	ubfx	r0, r5, #4, #6
 8101a22:	d0f5      	beq.n	8101a10 <HAL_RCC_GetSysClockFreq+0x2c>
 8101a24:	f3c2 02cc 	ubfx	r2, r2, #3, #13
 8101a28:	f004 0401 	and.w	r4, r4, #1
 8101a2c:	4362      	muls	r2, r4
 8101a2e:	ee07 0a90 	vmov	s15, r0
 8101a32:	ee06 2a90 	vmov	s13, r2
 8101a36:	f001 0103 	and.w	r1, r1, #3
 8101a3a:	2901      	cmp	r1, #1
 8101a3c:	eeb8 7ae7 	vcvt.f32.s32	s14, s15
 8101a40:	eefa 6ae9 	vcvt.f32.s32	s13, s13, #13
 8101a44:	eeb7 6a00 	vmov.f32	s12, #112	@ 0x3f800000  1.0
 8101a48:	d04e      	beq.n	8101ae8 <HAL_RCC_GetSysClockFreq+0x104>
 8101a4a:	2902      	cmp	r1, #2
 8101a4c:	d03e      	beq.n	8101acc <HAL_RCC_GetSysClockFreq+0xe8>
 8101a4e:	2900      	cmp	r1, #0
 8101a50:	d14a      	bne.n	8101ae8 <HAL_RCC_GetSysClockFreq+0x104>
 8101a52:	681a      	ldr	r2, [r3, #0]
 8101a54:	0692      	lsls	r2, r2, #26
 8101a56:	d527      	bpl.n	8101aa8 <HAL_RCC_GetSysClockFreq+0xc4>
 8101a58:	6819      	ldr	r1, [r3, #0]
 8101a5a:	4a2d      	ldr	r2, [pc, #180]	@ (8101b10 <HAL_RCC_GetSysClockFreq+0x12c>)
 8101a5c:	6b1b      	ldr	r3, [r3, #48]	@ 0x30
 8101a5e:	f3c1 01c1 	ubfx	r1, r1, #3, #2
 8101a62:	40ca      	lsrs	r2, r1
 8101a64:	ee07 2a90 	vmov	s15, r2
 8101a68:	eef8 5ae7 	vcvt.f32.s32	s11, s15
 8101a6c:	f3c3 0308 	ubfx	r3, r3, #0, #9
 8101a70:	eec5 7a87 	vdiv.f32	s15, s11, s14
 8101a74:	ee07 3a10 	vmov	s14, r3
 8101a78:	eeb8 7ac7 	vcvt.f32.s32	s14, s14
 8101a7c:	ee37 7a26 	vadd.f32	s14, s14, s13
 8101a80:	ee37 7a06 	vadd.f32	s14, s14, s12
 8101a84:	ee67 7a87 	vmul.f32	s15, s15, s14
 8101a88:	4b20      	ldr	r3, [pc, #128]	@ (8101b0c <HAL_RCC_GetSysClockFreq+0x128>)
 8101a8a:	6b1b      	ldr	r3, [r3, #48]	@ 0x30
 8101a8c:	f3c3 2346 	ubfx	r3, r3, #9, #7
 8101a90:	3301      	adds	r3, #1
 8101a92:	ee07 3a10 	vmov	s14, r3
 8101a96:	eef8 6ac7 	vcvt.f32.s32	s13, s14
 8101a9a:	ee87 7aa6 	vdiv.f32	s14, s15, s13
 8101a9e:	eefc 7ac7 	vcvt.u32.f32	s15, s14
 8101aa2:	ee17 0a90 	vmov	r0, s15
 8101aa6:	e7b3      	b.n	8101a10 <HAL_RCC_GetSysClockFreq+0x2c>
 8101aa8:	6b1b      	ldr	r3, [r3, #48]	@ 0x30
 8101aaa:	f3c3 0308 	ubfx	r3, r3, #0, #9
 8101aae:	ee07 3a90 	vmov	s15, r3
 8101ab2:	eef8 7ae7 	vcvt.f32.s32	s15, s15
 8101ab6:	ee77 7aa6 	vadd.f32	s15, s15, s13
 8101aba:	ee77 7a86 	vadd.f32	s15, s15, s12
 8101abe:	ed9f 6a15 	vldr	s12, [pc, #84]	@ 8101b14 <HAL_RCC_GetSysClockFreq+0x130>
 8101ac2:	eec6 6a07 	vdiv.f32	s13, s12, s14
 8101ac6:	ee67 7aa6 	vmul.f32	s15, s15, s13
 8101aca:	e7dd      	b.n	8101a88 <HAL_RCC_GetSysClockFreq+0xa4>
 8101acc:	6b1b      	ldr	r3, [r3, #48]	@ 0x30
 8101ace:	f3c3 0308 	ubfx	r3, r3, #0, #9
 8101ad2:	ee07 3a90 	vmov	s15, r3
 8101ad6:	eef8 7ae7 	vcvt.f32.s32	s15, s15
 8101ada:	ee77 7aa6 	vadd.f32	s15, s15, s13
 8101ade:	ee77 7a86 	vadd.f32	s15, s15, s12
 8101ae2:	ed9f 6a0d 	vldr	s12, [pc, #52]	@ 8101b18 <HAL_RCC_GetSysClockFreq+0x134>
 8101ae6:	e7ec      	b.n	8101ac2 <HAL_RCC_GetSysClockFreq+0xde>
 8101ae8:	6b1b      	ldr	r3, [r3, #48]	@ 0x30
 8101aea:	f3c3 0308 	ubfx	r3, r3, #0, #9
 8101aee:	ee07 3a90 	vmov	s15, r3
 8101af2:	eef8 7ae7 	vcvt.f32.s32	s15, s15
 8101af6:	ee77 7aa6 	vadd.f32	s15, s15, s13
 8101afa:	ee77 7a86 	vadd.f32	s15, s15, s12
 8101afe:	ed9f 6a07 	vldr	s12, [pc, #28]	@ 8101b1c <HAL_RCC_GetSysClockFreq+0x138>
 8101b02:	e7de      	b.n	8101ac2 <HAL_RCC_GetSysClockFreq+0xde>
 8101b04:	4806      	ldr	r0, [pc, #24]	@ (8101b20 <HAL_RCC_GetSysClockFreq+0x13c>)
 8101b06:	e783      	b.n	8101a10 <HAL_RCC_GetSysClockFreq+0x2c>
 8101b08:	4806      	ldr	r0, [pc, #24]	@ (8101b24 <HAL_RCC_GetSysClockFreq+0x140>)
 8101b0a:	e781      	b.n	8101a10 <HAL_RCC_GetSysClockFreq+0x2c>
 8101b0c:	58024400 	.word	0x58024400
 8101b10:	03d09000 	.word	0x03d09000
 8101b14:	4c742400 	.word	0x4c742400
 8101b18:	4bbebc20 	.word	0x4bbebc20
 8101b1c:	4a742400 	.word	0x4a742400
 8101b20:	017d7840 	.word	0x017d7840
 8101b24:	003d0900 	.word	0x003d0900

08101b28 <HAL_RCC_GetHCLKFreq>:
 8101b28:	b508      	push	{r3, lr}
 8101b2a:	f7ff ff5b 	bl	81019e4 <HAL_RCC_GetSysClockFreq>
 8101b2e:	4b0a      	ldr	r3, [pc, #40]	@ (8101b58 <HAL_RCC_GetHCLKFreq+0x30>)
 8101b30:	490a      	ldr	r1, [pc, #40]	@ (8101b5c <HAL_RCC_GetHCLKFreq+0x34>)
 8101b32:	699a      	ldr	r2, [r3, #24]
 8101b34:	699b      	ldr	r3, [r3, #24]
 8101b36:	f3c2 2203 	ubfx	r2, r2, #8, #4
 8101b3a:	f003 030f 	and.w	r3, r3, #15
 8101b3e:	5c8a      	ldrb	r2, [r1, r2]
 8101b40:	5ccb      	ldrb	r3, [r1, r3]
 8101b42:	f002 021f 	and.w	r2, r2, #31
 8101b46:	40d0      	lsrs	r0, r2
 8101b48:	f003 031f 	and.w	r3, r3, #31
 8101b4c:	40d8      	lsrs	r0, r3
 8101b4e:	4b04      	ldr	r3, [pc, #16]	@ (8101b60 <HAL_RCC_GetHCLKFreq+0x38>)
 8101b50:	6018      	str	r0, [r3, #0]
 8101b52:	4b04      	ldr	r3, [pc, #16]	@ (8101b64 <HAL_RCC_GetHCLKFreq+0x3c>)
 8101b54:	6018      	str	r0, [r3, #0]
 8101b56:	bd08      	pop	{r3, pc}
 8101b58:	58024400 	.word	0x58024400
 8101b5c:	08104f84 	.word	0x08104f84
 8101b60:	10000000 	.word	0x10000000
 8101b64:	10000004 	.word	0x10000004

08101b68 <HAL_RCC_GetPCLK1Freq>:
 8101b68:	b508      	push	{r3, lr}
 8101b6a:	f7ff ffdd 	bl	8101b28 <HAL_RCC_GetHCLKFreq>
 8101b6e:	4b05      	ldr	r3, [pc, #20]	@ (8101b84 <HAL_RCC_GetPCLK1Freq+0x1c>)
 8101b70:	4a05      	ldr	r2, [pc, #20]	@ (8101b88 <HAL_RCC_GetPCLK1Freq+0x20>)
 8101b72:	69db      	ldr	r3, [r3, #28]
 8101b74:	f3c3 1302 	ubfx	r3, r3, #4, #3
 8101b78:	5cd3      	ldrb	r3, [r2, r3]
 8101b7a:	f003 031f 	and.w	r3, r3, #31
 8101b7e:	40d8      	lsrs	r0, r3
 8101b80:	bd08      	pop	{r3, pc}
 8101b82:	bf00      	nop
 8101b84:	58024400 	.word	0x58024400
 8101b88:	08104f84 	.word	0x08104f84

08101b8c <HAL_RCC_GetClockConfig>:
 8101b8c:	233f      	movs	r3, #63	@ 0x3f
 8101b8e:	6003      	str	r3, [r0, #0]
 8101b90:	4b11      	ldr	r3, [pc, #68]	@ (8101bd8 <HAL_RCC_GetClockConfig+0x4c>)
 8101b92:	691a      	ldr	r2, [r3, #16]
 8101b94:	f002 0207 	and.w	r2, r2, #7
 8101b98:	6042      	str	r2, [r0, #4]
 8101b9a:	699a      	ldr	r2, [r3, #24]
 8101b9c:	f402 6270 	and.w	r2, r2, #3840	@ 0xf00
 8101ba0:	6082      	str	r2, [r0, #8]
 8101ba2:	699a      	ldr	r2, [r3, #24]
 8101ba4:	f002 020f 	and.w	r2, r2, #15
 8101ba8:	60c2      	str	r2, [r0, #12]
 8101baa:	699a      	ldr	r2, [r3, #24]
 8101bac:	f002 0270 	and.w	r2, r2, #112	@ 0x70
 8101bb0:	6102      	str	r2, [r0, #16]
 8101bb2:	69da      	ldr	r2, [r3, #28]
 8101bb4:	f002 0270 	and.w	r2, r2, #112	@ 0x70
 8101bb8:	6142      	str	r2, [r0, #20]
 8101bba:	69da      	ldr	r2, [r3, #28]
 8101bbc:	f402 62e0 	and.w	r2, r2, #1792	@ 0x700
 8101bc0:	6182      	str	r2, [r0, #24]
 8101bc2:	6a1b      	ldr	r3, [r3, #32]
 8101bc4:	f003 0370 	and.w	r3, r3, #112	@ 0x70
 8101bc8:	61c3      	str	r3, [r0, #28]
 8101bca:	4b04      	ldr	r3, [pc, #16]	@ (8101bdc <HAL_RCC_GetClockConfig+0x50>)
 8101bcc:	681b      	ldr	r3, [r3, #0]
 8101bce:	f003 030f 	and.w	r3, r3, #15
 8101bd2:	600b      	str	r3, [r1, #0]
 8101bd4:	4770      	bx	lr
 8101bd6:	bf00      	nop
 8101bd8:	58024400 	.word	0x58024400
 8101bdc:	52002000 	.word	0x52002000

08101be0 <RCCEx_PLL2_Config>:
 8101be0:	b5f8      	push	{r3, r4, r5, r6, r7, lr}
 8101be2:	4c39      	ldr	r4, [pc, #228]	@ (8101cc8 <RCCEx_PLL2_Config+0xe8>)
 8101be4:	6aa3      	ldr	r3, [r4, #40]	@ 0x28
 8101be6:	f003 0303 	and.w	r3, r3, #3
 8101bea:	2b03      	cmp	r3, #3
 8101bec:	4606      	mov	r6, r0
 8101bee:	460d      	mov	r5, r1
 8101bf0:	d067      	beq.n	8101cc2 <RCCEx_PLL2_Config+0xe2>
 8101bf2:	6823      	ldr	r3, [r4, #0]
 8101bf4:	f023 6380 	bic.w	r3, r3, #67108864	@ 0x4000000
 8101bf8:	6023      	str	r3, [r4, #0]
 8101bfa:	f7ff fbe3 	bl	81013c4 <HAL_GetTick>
 8101bfe:	4607      	mov	r7, r0
 8101c00:	6823      	ldr	r3, [r4, #0]
 8101c02:	011a      	lsls	r2, r3, #4
 8101c04:	d449      	bmi.n	8101c9a <RCCEx_PLL2_Config+0xba>
 8101c06:	6aa3      	ldr	r3, [r4, #40]	@ 0x28
 8101c08:	6832      	ldr	r2, [r6, #0]
 8101c0a:	f423 337c 	bic.w	r3, r3, #258048	@ 0x3f000
 8101c0e:	ea43 3302 	orr.w	r3, r3, r2, lsl #12
 8101c12:	62a3      	str	r3, [r4, #40]	@ 0x28
 8101c14:	68b3      	ldr	r3, [r6, #8]
 8101c16:	68f2      	ldr	r2, [r6, #12]
 8101c18:	3b01      	subs	r3, #1
 8101c1a:	3a01      	subs	r2, #1
 8101c1c:	025b      	lsls	r3, r3, #9
 8101c1e:	0412      	lsls	r2, r2, #16
 8101c20:	f402 02fe 	and.w	r2, r2, #8323072	@ 0x7f0000
 8101c24:	b29b      	uxth	r3, r3
 8101c26:	4313      	orrs	r3, r2
 8101c28:	6872      	ldr	r2, [r6, #4]
 8101c2a:	3a01      	subs	r2, #1
 8101c2c:	f3c2 0208 	ubfx	r2, r2, #0, #9
 8101c30:	4313      	orrs	r3, r2
 8101c32:	6932      	ldr	r2, [r6, #16]
 8101c34:	3a01      	subs	r2, #1
 8101c36:	0612      	lsls	r2, r2, #24
 8101c38:	f002 42fe 	and.w	r2, r2, #2130706432	@ 0x7f000000
 8101c3c:	4313      	orrs	r3, r2
 8101c3e:	63a3      	str	r3, [r4, #56]	@ 0x38
 8101c40:	6ae3      	ldr	r3, [r4, #44]	@ 0x2c
 8101c42:	6972      	ldr	r2, [r6, #20]
 8101c44:	f023 03c0 	bic.w	r3, r3, #192	@ 0xc0
 8101c48:	4313      	orrs	r3, r2
 8101c4a:	62e3      	str	r3, [r4, #44]	@ 0x2c
 8101c4c:	6ae3      	ldr	r3, [r4, #44]	@ 0x2c
 8101c4e:	69b2      	ldr	r2, [r6, #24]
 8101c50:	f023 0320 	bic.w	r3, r3, #32
 8101c54:	4313      	orrs	r3, r2
 8101c56:	62e3      	str	r3, [r4, #44]	@ 0x2c
 8101c58:	6ae3      	ldr	r3, [r4, #44]	@ 0x2c
 8101c5a:	f023 0310 	bic.w	r3, r3, #16
 8101c5e:	62e3      	str	r3, [r4, #44]	@ 0x2c
 8101c60:	6be3      	ldr	r3, [r4, #60]	@ 0x3c
 8101c62:	69f2      	ldr	r2, [r6, #28]
 8101c64:	f36f 03cf 	bfc	r3, #3, #13
 8101c68:	ea43 03c2 	orr.w	r3, r3, r2, lsl #3
 8101c6c:	63e3      	str	r3, [r4, #60]	@ 0x3c
 8101c6e:	6ae3      	ldr	r3, [r4, #44]	@ 0x2c
 8101c70:	f043 0310 	orr.w	r3, r3, #16
 8101c74:	62e3      	str	r3, [r4, #44]	@ 0x2c
 8101c76:	6ae3      	ldr	r3, [r4, #44]	@ 0x2c
 8101c78:	b9b5      	cbnz	r5, 8101ca8 <RCCEx_PLL2_Config+0xc8>
 8101c7a:	f443 2300 	orr.w	r3, r3, #524288	@ 0x80000
 8101c7e:	62e3      	str	r3, [r4, #44]	@ 0x2c
 8101c80:	4c11      	ldr	r4, [pc, #68]	@ (8101cc8 <RCCEx_PLL2_Config+0xe8>)
 8101c82:	6823      	ldr	r3, [r4, #0]
 8101c84:	f043 6380 	orr.w	r3, r3, #67108864	@ 0x4000000
 8101c88:	6023      	str	r3, [r4, #0]
 8101c8a:	f7ff fb9b 	bl	81013c4 <HAL_GetTick>
 8101c8e:	4605      	mov	r5, r0
 8101c90:	6823      	ldr	r3, [r4, #0]
 8101c92:	011b      	lsls	r3, r3, #4
 8101c94:	d50f      	bpl.n	8101cb6 <RCCEx_PLL2_Config+0xd6>
 8101c96:	2000      	movs	r0, #0
 8101c98:	e005      	b.n	8101ca6 <RCCEx_PLL2_Config+0xc6>
 8101c9a:	f7ff fb93 	bl	81013c4 <HAL_GetTick>
 8101c9e:	1bc0      	subs	r0, r0, r7
 8101ca0:	2802      	cmp	r0, #2
 8101ca2:	d9ad      	bls.n	8101c00 <RCCEx_PLL2_Config+0x20>
 8101ca4:	2003      	movs	r0, #3
 8101ca6:	bdf8      	pop	{r3, r4, r5, r6, r7, pc}
 8101ca8:	2d01      	cmp	r5, #1
 8101caa:	bf0c      	ite	eq
 8101cac:	f443 1380 	orreq.w	r3, r3, #1048576	@ 0x100000
 8101cb0:	f443 1300 	orrne.w	r3, r3, #2097152	@ 0x200000
 8101cb4:	e7e3      	b.n	8101c7e <RCCEx_PLL2_Config+0x9e>
 8101cb6:	f7ff fb85 	bl	81013c4 <HAL_GetTick>
 8101cba:	1b40      	subs	r0, r0, r5
 8101cbc:	2802      	cmp	r0, #2
 8101cbe:	d9e7      	bls.n	8101c90 <RCCEx_PLL2_Config+0xb0>
 8101cc0:	e7f0      	b.n	8101ca4 <RCCEx_PLL2_Config+0xc4>
 8101cc2:	2001      	movs	r0, #1
 8101cc4:	e7ef      	b.n	8101ca6 <RCCEx_PLL2_Config+0xc6>
 8101cc6:	bf00      	nop
 8101cc8:	58024400 	.word	0x58024400

08101ccc <RCCEx_PLL3_Config>:
 8101ccc:	b5f8      	push	{r3, r4, r5, r6, r7, lr}
 8101cce:	4c39      	ldr	r4, [pc, #228]	@ (8101db4 <RCCEx_PLL3_Config+0xe8>)
 8101cd0:	6aa3      	ldr	r3, [r4, #40]	@ 0x28
 8101cd2:	f003 0303 	and.w	r3, r3, #3
 8101cd6:	2b03      	cmp	r3, #3
 8101cd8:	4606      	mov	r6, r0
 8101cda:	460d      	mov	r5, r1
 8101cdc:	d067      	beq.n	8101dae <RCCEx_PLL3_Config+0xe2>
 8101cde:	6823      	ldr	r3, [r4, #0]
 8101ce0:	f023 5380 	bic.w	r3, r3, #268435456	@ 0x10000000
 8101ce4:	6023      	str	r3, [r4, #0]
 8101ce6:	f7ff fb6d 	bl	81013c4 <HAL_GetTick>
 8101cea:	4607      	mov	r7, r0
 8101cec:	6823      	ldr	r3, [r4, #0]
 8101cee:	009a      	lsls	r2, r3, #2
 8101cf0:	d449      	bmi.n	8101d86 <RCCEx_PLL3_Config+0xba>
 8101cf2:	6aa3      	ldr	r3, [r4, #40]	@ 0x28
 8101cf4:	6832      	ldr	r2, [r6, #0]
 8101cf6:	f023 737c 	bic.w	r3, r3, #66060288	@ 0x3f00000
 8101cfa:	ea43 5302 	orr.w	r3, r3, r2, lsl #20
 8101cfe:	62a3      	str	r3, [r4, #40]	@ 0x28
 8101d00:	68b3      	ldr	r3, [r6, #8]
 8101d02:	68f2      	ldr	r2, [r6, #12]
 8101d04:	3b01      	subs	r3, #1
 8101d06:	3a01      	subs	r2, #1
 8101d08:	025b      	lsls	r3, r3, #9
 8101d0a:	0412      	lsls	r2, r2, #16
 8101d0c:	f402 02fe 	and.w	r2, r2, #8323072	@ 0x7f0000
 8101d10:	b29b      	uxth	r3, r3
 8101d12:	4313      	orrs	r3, r2
 8101d14:	6872      	ldr	r2, [r6, #4]
 8101d16:	3a01      	subs	r2, #1
 8101d18:	f3c2 0208 	ubfx	r2, r2, #0, #9
 8101d1c:	4313      	orrs	r3, r2
 8101d1e:	6932      	ldr	r2, [r6, #16]
 8101d20:	3a01      	subs	r2, #1
 8101d22:	0612      	lsls	r2, r2, #24
 8101d24:	f002 42fe 	and.w	r2, r2, #2130706432	@ 0x7f000000
 8101d28:	4313      	orrs	r3, r2
 8101d2a:	6423      	str	r3, [r4, #64]	@ 0x40
 8101d2c:	6ae3      	ldr	r3, [r4, #44]	@ 0x2c
 8101d2e:	6972      	ldr	r2, [r6, #20]
 8101d30:	f423 6340 	bic.w	r3, r3, #3072	@ 0xc00
 8101d34:	4313      	orrs	r3, r2
 8101d36:	62e3      	str	r3, [r4, #44]	@ 0x2c
 8101d38:	6ae3      	ldr	r3, [r4, #44]	@ 0x2c
 8101d3a:	69b2      	ldr	r2, [r6, #24]
 8101d3c:	f423 7300 	bic.w	r3, r3, #512	@ 0x200
 8101d40:	4313      	orrs	r3, r2
 8101d42:	62e3      	str	r3, [r4, #44]	@ 0x2c
 8101d44:	6ae3      	ldr	r3, [r4, #44]	@ 0x2c
 8101d46:	f423 7380 	bic.w	r3, r3, #256	@ 0x100
 8101d4a:	62e3      	str	r3, [r4, #44]	@ 0x2c
 8101d4c:	6c63      	ldr	r3, [r4, #68]	@ 0x44
 8101d4e:	69f2      	ldr	r2, [r6, #28]
 8101d50:	f36f 03cf 	bfc	r3, #3, #13
 8101d54:	ea43 03c2 	orr.w	r3, r3, r2, lsl #3
 8101d58:	6463      	str	r3, [r4, #68]	@ 0x44
 8101d5a:	6ae3      	ldr	r3, [r4, #44]	@ 0x2c
 8101d5c:	f443 7380 	orr.w	r3, r3, #256	@ 0x100
 8101d60:	62e3      	str	r3, [r4, #44]	@ 0x2c
 8101d62:	6ae3      	ldr	r3, [r4, #44]	@ 0x2c
 8101d64:	b9b5      	cbnz	r5, 8101d94 <RCCEx_PLL3_Config+0xc8>
 8101d66:	f443 0380 	orr.w	r3, r3, #4194304	@ 0x400000
 8101d6a:	62e3      	str	r3, [r4, #44]	@ 0x2c
 8101d6c:	4c11      	ldr	r4, [pc, #68]	@ (8101db4 <RCCEx_PLL3_Config+0xe8>)
 8101d6e:	6823      	ldr	r3, [r4, #0]
 8101d70:	f043 5380 	orr.w	r3, r3, #268435456	@ 0x10000000
 8101d74:	6023      	str	r3, [r4, #0]
 8101d76:	f7ff fb25 	bl	81013c4 <HAL_GetTick>
 8101d7a:	4605      	mov	r5, r0
 8101d7c:	6823      	ldr	r3, [r4, #0]
 8101d7e:	009b      	lsls	r3, r3, #2
 8101d80:	d50f      	bpl.n	8101da2 <RCCEx_PLL3_Config+0xd6>
 8101d82:	2000      	movs	r0, #0
 8101d84:	e005      	b.n	8101d92 <RCCEx_PLL3_Config+0xc6>
 8101d86:	f7ff fb1d 	bl	81013c4 <HAL_GetTick>
 8101d8a:	1bc0      	subs	r0, r0, r7
 8101d8c:	2802      	cmp	r0, #2
 8101d8e:	d9ad      	bls.n	8101cec <RCCEx_PLL3_Config+0x20>
 8101d90:	2003      	movs	r0, #3
 8101d92:	bdf8      	pop	{r3, r4, r5, r6, r7, pc}
 8101d94:	2d01      	cmp	r5, #1
 8101d96:	bf0c      	ite	eq
 8101d98:	f443 0300 	orreq.w	r3, r3, #8388608	@ 0x800000
 8101d9c:	f043 7380 	orrne.w	r3, r3, #16777216	@ 0x1000000
 8101da0:	e7e3      	b.n	8101d6a <RCCEx_PLL3_Config+0x9e>
 8101da2:	f7ff fb0f 	bl	81013c4 <HAL_GetTick>
 8101da6:	1b40      	subs	r0, r0, r5
 8101da8:	2802      	cmp	r0, #2
 8101daa:	d9e7      	bls.n	8101d7c <RCCEx_PLL3_Config+0xb0>
 8101dac:	e7f0      	b.n	8101d90 <RCCEx_PLL3_Config+0xc4>
 8101dae:	2001      	movs	r0, #1
 8101db0:	e7ef      	b.n	8101d92 <RCCEx_PLL3_Config+0xc6>
 8101db2:	bf00      	nop
 8101db4:	58024400 	.word	0x58024400

08101db8 <HAL_RCCEx_PeriphCLKConfig>:
 8101db8:	e92d 43f8 	stmdb	sp!, {r3, r4, r5, r6, r7, r8, r9, lr}
 8101dbc:	6803      	ldr	r3, [r0, #0]
 8101dbe:	011c      	lsls	r4, r3, #4
 8101dc0:	4605      	mov	r5, r0
 8101dc2:	d51e      	bpl.n	8101e02 <HAL_RCCEx_PeriphCLKConfig+0x4a>
 8101dc4:	6ec3      	ldr	r3, [r0, #108]	@ 0x6c
 8101dc6:	f5b3 1f00 	cmp.w	r3, #2097152	@ 0x200000
 8101dca:	d02a      	beq.n	8101e22 <HAL_RCCEx_PeriphCLKConfig+0x6a>
 8101dcc:	d80f      	bhi.n	8101dee <HAL_RCCEx_PeriphCLKConfig+0x36>
 8101dce:	b1d3      	cbz	r3, 8101e06 <HAL_RCCEx_PeriphCLKConfig+0x4e>
 8101dd0:	f5b3 1f80 	cmp.w	r3, #1048576	@ 0x100000
 8101dd4:	d01d      	beq.n	8101e12 <HAL_RCCEx_PeriphCLKConfig+0x5a>
 8101dd6:	2601      	movs	r6, #1
 8101dd8:	682b      	ldr	r3, [r5, #0]
 8101dda:	05d8      	lsls	r0, r3, #23
 8101ddc:	d54f      	bpl.n	8101e7e <HAL_RCCEx_PeriphCLKConfig+0xc6>
 8101dde:	6deb      	ldr	r3, [r5, #92]	@ 0x5c
 8101de0:	2b04      	cmp	r3, #4
 8101de2:	d84b      	bhi.n	8101e7c <HAL_RCCEx_PeriphCLKConfig+0xc4>
 8101de4:	e8df f003 	tbb	[pc, r3]
 8101de8:	27443d22 	.word	0x27443d22
 8101dec:	27          	.byte	0x27
 8101ded:	00          	.byte	0x00
 8101dee:	f5b3 1f40 	cmp.w	r3, #3145728	@ 0x300000
 8101df2:	d1f0      	bne.n	8101dd6 <HAL_RCCEx_PeriphCLKConfig+0x1e>
 8101df4:	4a86      	ldr	r2, [pc, #536]	@ (8102010 <HAL_RCCEx_PeriphCLKConfig+0x258>)
 8101df6:	6ee9      	ldr	r1, [r5, #108]	@ 0x6c
 8101df8:	6d13      	ldr	r3, [r2, #80]	@ 0x50
 8101dfa:	f423 1340 	bic.w	r3, r3, #3145728	@ 0x300000
 8101dfe:	430b      	orrs	r3, r1
 8101e00:	6513      	str	r3, [r2, #80]	@ 0x50
 8101e02:	2600      	movs	r6, #0
 8101e04:	e7e8      	b.n	8101dd8 <HAL_RCCEx_PeriphCLKConfig+0x20>
 8101e06:	4a82      	ldr	r2, [pc, #520]	@ (8102010 <HAL_RCCEx_PeriphCLKConfig+0x258>)
 8101e08:	6ad3      	ldr	r3, [r2, #44]	@ 0x2c
 8101e0a:	f443 3300 	orr.w	r3, r3, #131072	@ 0x20000
 8101e0e:	62d3      	str	r3, [r2, #44]	@ 0x2c
 8101e10:	e7f0      	b.n	8101df4 <HAL_RCCEx_PeriphCLKConfig+0x3c>
 8101e12:	2102      	movs	r1, #2
 8101e14:	3008      	adds	r0, #8
 8101e16:	f7ff fee3 	bl	8101be0 <RCCEx_PLL2_Config>
 8101e1a:	4606      	mov	r6, r0
 8101e1c:	2800      	cmp	r0, #0
 8101e1e:	d1db      	bne.n	8101dd8 <HAL_RCCEx_PeriphCLKConfig+0x20>
 8101e20:	e7e8      	b.n	8101df4 <HAL_RCCEx_PeriphCLKConfig+0x3c>
 8101e22:	2102      	movs	r1, #2
 8101e24:	3028      	adds	r0, #40	@ 0x28
 8101e26:	f7ff ff51 	bl	8101ccc <RCCEx_PLL3_Config>
 8101e2a:	e7f6      	b.n	8101e1a <HAL_RCCEx_PeriphCLKConfig+0x62>
 8101e2c:	4a78      	ldr	r2, [pc, #480]	@ (8102010 <HAL_RCCEx_PeriphCLKConfig+0x258>)
 8101e2e:	6ad3      	ldr	r3, [r2, #44]	@ 0x2c
 8101e30:	f443 3300 	orr.w	r3, r3, #131072	@ 0x20000
 8101e34:	62d3      	str	r3, [r2, #44]	@ 0x2c
 8101e36:	4634      	mov	r4, r6
 8101e38:	bb1c      	cbnz	r4, 8101e82 <HAL_RCCEx_PeriphCLKConfig+0xca>
 8101e3a:	4a75      	ldr	r2, [pc, #468]	@ (8102010 <HAL_RCCEx_PeriphCLKConfig+0x258>)
 8101e3c:	6de9      	ldr	r1, [r5, #92]	@ 0x5c
 8101e3e:	6d13      	ldr	r3, [r2, #80]	@ 0x50
 8101e40:	f023 0307 	bic.w	r3, r3, #7
 8101e44:	430b      	orrs	r3, r1
 8101e46:	6513      	str	r3, [r2, #80]	@ 0x50
 8101e48:	682b      	ldr	r3, [r5, #0]
 8101e4a:	0599      	lsls	r1, r3, #22
 8101e4c:	d528      	bpl.n	8101ea0 <HAL_RCCEx_PeriphCLKConfig+0xe8>
 8101e4e:	6e2b      	ldr	r3, [r5, #96]	@ 0x60
 8101e50:	2b80      	cmp	r3, #128	@ 0x80
 8101e52:	d043      	beq.n	8101edc <HAL_RCCEx_PeriphCLKConfig+0x124>
 8101e54:	d817      	bhi.n	8101e86 <HAL_RCCEx_PeriphCLKConfig+0xce>
 8101e56:	b3a3      	cbz	r3, 8101ec2 <HAL_RCCEx_PeriphCLKConfig+0x10a>
 8101e58:	2b40      	cmp	r3, #64	@ 0x40
 8101e5a:	d038      	beq.n	8101ece <HAL_RCCEx_PeriphCLKConfig+0x116>
 8101e5c:	2601      	movs	r6, #1
 8101e5e:	4634      	mov	r4, r6
 8101e60:	e01e      	b.n	8101ea0 <HAL_RCCEx_PeriphCLKConfig+0xe8>
 8101e62:	2100      	movs	r1, #0
 8101e64:	f105 0008 	add.w	r0, r5, #8
 8101e68:	f7ff feba 	bl	8101be0 <RCCEx_PLL2_Config>
 8101e6c:	4604      	mov	r4, r0
 8101e6e:	e7e3      	b.n	8101e38 <HAL_RCCEx_PeriphCLKConfig+0x80>
 8101e70:	2100      	movs	r1, #0
 8101e72:	f105 0028 	add.w	r0, r5, #40	@ 0x28
 8101e76:	f7ff ff29 	bl	8101ccc <RCCEx_PLL3_Config>
 8101e7a:	e7f7      	b.n	8101e6c <HAL_RCCEx_PeriphCLKConfig+0xb4>
 8101e7c:	2601      	movs	r6, #1
 8101e7e:	4634      	mov	r4, r6
 8101e80:	e7e2      	b.n	8101e48 <HAL_RCCEx_PeriphCLKConfig+0x90>
 8101e82:	4626      	mov	r6, r4
 8101e84:	e7e0      	b.n	8101e48 <HAL_RCCEx_PeriphCLKConfig+0x90>
 8101e86:	2bc0      	cmp	r3, #192	@ 0xc0
 8101e88:	d002      	beq.n	8101e90 <HAL_RCCEx_PeriphCLKConfig+0xd8>
 8101e8a:	f5b3 7f80 	cmp.w	r3, #256	@ 0x100
 8101e8e:	d1e5      	bne.n	8101e5c <HAL_RCCEx_PeriphCLKConfig+0xa4>
 8101e90:	bb54      	cbnz	r4, 8101ee8 <HAL_RCCEx_PeriphCLKConfig+0x130>
 8101e92:	4a5f      	ldr	r2, [pc, #380]	@ (8102010 <HAL_RCCEx_PeriphCLKConfig+0x258>)
 8101e94:	6e29      	ldr	r1, [r5, #96]	@ 0x60
 8101e96:	6d13      	ldr	r3, [r2, #80]	@ 0x50
 8101e98:	f423 73e0 	bic.w	r3, r3, #448	@ 0x1c0
 8101e9c:	430b      	orrs	r3, r1
 8101e9e:	6513      	str	r3, [r2, #80]	@ 0x50
 8101ea0:	682b      	ldr	r3, [r5, #0]
 8101ea2:	055a      	lsls	r2, r3, #21
 8101ea4:	d531      	bpl.n	8101f0a <HAL_RCCEx_PeriphCLKConfig+0x152>
 8101ea6:	f8d5 30ac 	ldr.w	r3, [r5, #172]	@ 0xac
 8101eaa:	f5b3 0f80 	cmp.w	r3, #4194304	@ 0x400000
 8101eae:	d049      	beq.n	8101f44 <HAL_RCCEx_PeriphCLKConfig+0x18c>
 8101eb0:	d81c      	bhi.n	8101eec <HAL_RCCEx_PeriphCLKConfig+0x134>
 8101eb2:	2b00      	cmp	r3, #0
 8101eb4:	d039      	beq.n	8101f2a <HAL_RCCEx_PeriphCLKConfig+0x172>
 8101eb6:	f5b3 1f00 	cmp.w	r3, #2097152	@ 0x200000
 8101eba:	d03c      	beq.n	8101f36 <HAL_RCCEx_PeriphCLKConfig+0x17e>
 8101ebc:	2601      	movs	r6, #1
 8101ebe:	4634      	mov	r4, r6
 8101ec0:	e023      	b.n	8101f0a <HAL_RCCEx_PeriphCLKConfig+0x152>
 8101ec2:	4a53      	ldr	r2, [pc, #332]	@ (8102010 <HAL_RCCEx_PeriphCLKConfig+0x258>)
 8101ec4:	6ad3      	ldr	r3, [r2, #44]	@ 0x2c
 8101ec6:	f443 3300 	orr.w	r3, r3, #131072	@ 0x20000
 8101eca:	62d3      	str	r3, [r2, #44]	@ 0x2c
 8101ecc:	e7e0      	b.n	8101e90 <HAL_RCCEx_PeriphCLKConfig+0xd8>
 8101ece:	2100      	movs	r1, #0
 8101ed0:	f105 0008 	add.w	r0, r5, #8
 8101ed4:	f7ff fe84 	bl	8101be0 <RCCEx_PLL2_Config>
 8101ed8:	4604      	mov	r4, r0
 8101eda:	e7d9      	b.n	8101e90 <HAL_RCCEx_PeriphCLKConfig+0xd8>
 8101edc:	2100      	movs	r1, #0
 8101ede:	f105 0028 	add.w	r0, r5, #40	@ 0x28
 8101ee2:	f7ff fef3 	bl	8101ccc <RCCEx_PLL3_Config>
 8101ee6:	e7f7      	b.n	8101ed8 <HAL_RCCEx_PeriphCLKConfig+0x120>
 8101ee8:	4626      	mov	r6, r4
 8101eea:	e7d9      	b.n	8101ea0 <HAL_RCCEx_PeriphCLKConfig+0xe8>
 8101eec:	f5b3 0fc0 	cmp.w	r3, #6291456	@ 0x600000
 8101ef0:	d002      	beq.n	8101ef8 <HAL_RCCEx_PeriphCLKConfig+0x140>
 8101ef2:	f5b3 0f00 	cmp.w	r3, #8388608	@ 0x800000
 8101ef6:	d1e1      	bne.n	8101ebc <HAL_RCCEx_PeriphCLKConfig+0x104>
 8101ef8:	bb54      	cbnz	r4, 8101f50 <HAL_RCCEx_PeriphCLKConfig+0x198>
 8101efa:	4a45      	ldr	r2, [pc, #276]	@ (8102010 <HAL_RCCEx_PeriphCLKConfig+0x258>)
 8101efc:	f8d5 10ac 	ldr.w	r1, [r5, #172]	@ 0xac
 8101f00:	6d93      	ldr	r3, [r2, #88]	@ 0x58
 8101f02:	f423 0360 	bic.w	r3, r3, #14680064	@ 0xe00000
 8101f06:	430b      	orrs	r3, r1
 8101f08:	6593      	str	r3, [r2, #88]	@ 0x58
 8101f0a:	682b      	ldr	r3, [r5, #0]
 8101f0c:	051b      	lsls	r3, r3, #20
 8101f0e:	d530      	bpl.n	8101f72 <HAL_RCCEx_PeriphCLKConfig+0x1ba>
 8101f10:	f8d5 30b0 	ldr.w	r3, [r5, #176]	@ 0xb0
 8101f14:	f1b3 7f00 	cmp.w	r3, #33554432	@ 0x2000000
 8101f18:	d045      	beq.n	8101fa6 <HAL_RCCEx_PeriphCLKConfig+0x1ee>
 8101f1a:	d81b      	bhi.n	8101f54 <HAL_RCCEx_PeriphCLKConfig+0x19c>
 8101f1c:	b3b3      	cbz	r3, 8101f8c <HAL_RCCEx_PeriphCLKConfig+0x1d4>
 8101f1e:	f1b3 7f80 	cmp.w	r3, #16777216	@ 0x1000000
 8101f22:	d039      	beq.n	8101f98 <HAL_RCCEx_PeriphCLKConfig+0x1e0>
 8101f24:	2601      	movs	r6, #1
 8101f26:	4634      	mov	r4, r6
 8101f28:	e023      	b.n	8101f72 <HAL_RCCEx_PeriphCLKConfig+0x1ba>
 8101f2a:	4a39      	ldr	r2, [pc, #228]	@ (8102010 <HAL_RCCEx_PeriphCLKConfig+0x258>)
 8101f2c:	6ad3      	ldr	r3, [r2, #44]	@ 0x2c
 8101f2e:	f443 3300 	orr.w	r3, r3, #131072	@ 0x20000
 8101f32:	62d3      	str	r3, [r2, #44]	@ 0x2c
 8101f34:	e7e0      	b.n	8101ef8 <HAL_RCCEx_PeriphCLKConfig+0x140>
 8101f36:	2100      	movs	r1, #0
 8101f38:	f105 0008 	add.w	r0, r5, #8
 8101f3c:	f7ff fe50 	bl	8101be0 <RCCEx_PLL2_Config>
 8101f40:	4604      	mov	r4, r0
 8101f42:	e7d9      	b.n	8101ef8 <HAL_RCCEx_PeriphCLKConfig+0x140>
 8101f44:	2100      	movs	r1, #0
 8101f46:	f105 0028 	add.w	r0, r5, #40	@ 0x28
 8101f4a:	f7ff febf 	bl	8101ccc <RCCEx_PLL3_Config>
 8101f4e:	e7f7      	b.n	8101f40 <HAL_RCCEx_PeriphCLKConfig+0x188>
 8101f50:	4626      	mov	r6, r4
 8101f52:	e7da      	b.n	8101f0a <HAL_RCCEx_PeriphCLKConfig+0x152>
 8101f54:	f1b3 7f40 	cmp.w	r3, #50331648	@ 0x3000000
 8101f58:	d002      	beq.n	8101f60 <HAL_RCCEx_PeriphCLKConfig+0x1a8>
 8101f5a:	f1b3 6f80 	cmp.w	r3, #67108864	@ 0x4000000
 8101f5e:	d1e1      	bne.n	8101f24 <HAL_RCCEx_PeriphCLKConfig+0x16c>
 8101f60:	bb3c      	cbnz	r4, 8101fb2 <HAL_RCCEx_PeriphCLKConfig+0x1fa>
 8101f62:	4a2b      	ldr	r2, [pc, #172]	@ (8102010 <HAL_RCCEx_PeriphCLKConfig+0x258>)
 8101f64:	f8d5 10b0 	ldr.w	r1, [r5, #176]	@ 0xb0
 8101f68:	6d93      	ldr	r3, [r2, #88]	@ 0x58
 8101f6a:	f023 63e0 	bic.w	r3, r3, #117440512	@ 0x7000000
 8101f6e:	430b      	orrs	r3, r1
 8101f70:	6593      	str	r3, [r2, #88]	@ 0x58
 8101f72:	682b      	ldr	r3, [r5, #0]
 8101f74:	019f      	lsls	r7, r3, #6
 8101f76:	d528      	bpl.n	8101fca <HAL_RCCEx_PeriphCLKConfig+0x212>
 8101f78:	6ceb      	ldr	r3, [r5, #76]	@ 0x4c
 8101f7a:	2b20      	cmp	r3, #32
 8101f7c:	d03e      	beq.n	8101ffc <HAL_RCCEx_PeriphCLKConfig+0x244>
 8101f7e:	d81a      	bhi.n	8101fb6 <HAL_RCCEx_PeriphCLKConfig+0x1fe>
 8101f80:	b1db      	cbz	r3, 8101fba <HAL_RCCEx_PeriphCLKConfig+0x202>
 8101f82:	2b10      	cmp	r3, #16
 8101f84:	d034      	beq.n	8101ff0 <HAL_RCCEx_PeriphCLKConfig+0x238>
 8101f86:	2601      	movs	r6, #1
 8101f88:	4634      	mov	r4, r6
 8101f8a:	e01e      	b.n	8101fca <HAL_RCCEx_PeriphCLKConfig+0x212>
 8101f8c:	4a20      	ldr	r2, [pc, #128]	@ (8102010 <HAL_RCCEx_PeriphCLKConfig+0x258>)
 8101f8e:	6ad3      	ldr	r3, [r2, #44]	@ 0x2c
 8101f90:	f443 3300 	orr.w	r3, r3, #131072	@ 0x20000
 8101f94:	62d3      	str	r3, [r2, #44]	@ 0x2c
 8101f96:	e7e3      	b.n	8101f60 <HAL_RCCEx_PeriphCLKConfig+0x1a8>
 8101f98:	2100      	movs	r1, #0
 8101f9a:	f105 0008 	add.w	r0, r5, #8
 8101f9e:	f7ff fe1f 	bl	8101be0 <RCCEx_PLL2_Config>
 8101fa2:	4604      	mov	r4, r0
 8101fa4:	e7dc      	b.n	8101f60 <HAL_RCCEx_PeriphCLKConfig+0x1a8>
 8101fa6:	2100      	movs	r1, #0
 8101fa8:	f105 0028 	add.w	r0, r5, #40	@ 0x28
 8101fac:	f7ff fe8e 	bl	8101ccc <RCCEx_PLL3_Config>
 8101fb0:	e7f7      	b.n	8101fa2 <HAL_RCCEx_PeriphCLKConfig+0x1ea>
 8101fb2:	4626      	mov	r6, r4
 8101fb4:	e7dd      	b.n	8101f72 <HAL_RCCEx_PeriphCLKConfig+0x1ba>
 8101fb6:	2b30      	cmp	r3, #48	@ 0x30
 8101fb8:	d1e5      	bne.n	8101f86 <HAL_RCCEx_PeriphCLKConfig+0x1ce>
 8101fba:	bb34      	cbnz	r4, 810200a <HAL_RCCEx_PeriphCLKConfig+0x252>
 8101fbc:	4a14      	ldr	r2, [pc, #80]	@ (8102010 <HAL_RCCEx_PeriphCLKConfig+0x258>)
 8101fbe:	6ce9      	ldr	r1, [r5, #76]	@ 0x4c
 8101fc0:	6cd3      	ldr	r3, [r2, #76]	@ 0x4c
 8101fc2:	f023 0330 	bic.w	r3, r3, #48	@ 0x30
 8101fc6:	430b      	orrs	r3, r1
 8101fc8:	64d3      	str	r3, [r2, #76]	@ 0x4c
 8101fca:	682b      	ldr	r3, [r5, #0]
 8101fcc:	04d8      	lsls	r0, r3, #19
 8101fce:	d530      	bpl.n	8102032 <HAL_RCCEx_PeriphCLKConfig+0x27a>
 8101fd0:	6e6b      	ldr	r3, [r5, #100]	@ 0x64
 8101fd2:	f5b3 5f00 	cmp.w	r3, #8192	@ 0x2000
 8101fd6:	f000 8095 	beq.w	8102104 <HAL_RCCEx_PeriphCLKConfig+0x34c>
 8101fda:	d81b      	bhi.n	8102014 <HAL_RCCEx_PeriphCLKConfig+0x25c>
 8101fdc:	2b00      	cmp	r3, #0
 8101fde:	f000 8084 	beq.w	81020ea <HAL_RCCEx_PeriphCLKConfig+0x332>
 8101fe2:	f5b3 5f80 	cmp.w	r3, #4096	@ 0x1000
 8101fe6:	f000 8086 	beq.w	81020f6 <HAL_RCCEx_PeriphCLKConfig+0x33e>
 8101fea:	2601      	movs	r6, #1
 8101fec:	4634      	mov	r4, r6
 8101fee:	e020      	b.n	8102032 <HAL_RCCEx_PeriphCLKConfig+0x27a>
 8101ff0:	4a07      	ldr	r2, [pc, #28]	@ (8102010 <HAL_RCCEx_PeriphCLKConfig+0x258>)
 8101ff2:	6ad3      	ldr	r3, [r2, #44]	@ 0x2c
 8101ff4:	f443 3300 	orr.w	r3, r3, #131072	@ 0x20000
 8101ff8:	62d3      	str	r3, [r2, #44]	@ 0x2c
 8101ffa:	e7de      	b.n	8101fba <HAL_RCCEx_PeriphCLKConfig+0x202>
 8101ffc:	2102      	movs	r1, #2
 8101ffe:	f105 0008 	add.w	r0, r5, #8
 8102002:	f7ff fded 	bl	8101be0 <RCCEx_PLL2_Config>
 8102006:	4604      	mov	r4, r0
 8102008:	e7d7      	b.n	8101fba <HAL_RCCEx_PeriphCLKConfig+0x202>
 810200a:	4626      	mov	r6, r4
 810200c:	e7dd      	b.n	8101fca <HAL_RCCEx_PeriphCLKConfig+0x212>
 810200e:	bf00      	nop
 8102010:	58024400 	.word	0x58024400
 8102014:	f5b3 5f40 	cmp.w	r3, #12288	@ 0x3000
 8102018:	d002      	beq.n	8102020 <HAL_RCCEx_PeriphCLKConfig+0x268>
 810201a:	f5b3 4f80 	cmp.w	r3, #16384	@ 0x4000
 810201e:	d1e4      	bne.n	8101fea <HAL_RCCEx_PeriphCLKConfig+0x232>
 8102020:	2c00      	cmp	r4, #0
 8102022:	d175      	bne.n	8102110 <HAL_RCCEx_PeriphCLKConfig+0x358>
 8102024:	4a93      	ldr	r2, [pc, #588]	@ (8102274 <HAL_RCCEx_PeriphCLKConfig+0x4bc>)
 8102026:	6e69      	ldr	r1, [r5, #100]	@ 0x64
 8102028:	6d13      	ldr	r3, [r2, #80]	@ 0x50
 810202a:	f423 43e0 	bic.w	r3, r3, #28672	@ 0x7000
 810202e:	430b      	orrs	r3, r1
 8102030:	6513      	str	r3, [r2, #80]	@ 0x50
 8102032:	682b      	ldr	r3, [r5, #0]
 8102034:	0499      	lsls	r1, r3, #18
 8102036:	d50c      	bpl.n	8102052 <HAL_RCCEx_PeriphCLKConfig+0x29a>
 8102038:	6eab      	ldr	r3, [r5, #104]	@ 0x68
 810203a:	f5b3 3f00 	cmp.w	r3, #131072	@ 0x20000
 810203e:	f000 8081 	beq.w	8102144 <HAL_RCCEx_PeriphCLKConfig+0x38c>
 8102042:	d867      	bhi.n	8102114 <HAL_RCCEx_PeriphCLKConfig+0x35c>
 8102044:	2b00      	cmp	r3, #0
 8102046:	d06d      	beq.n	8102124 <HAL_RCCEx_PeriphCLKConfig+0x36c>
 8102048:	f5b3 3f80 	cmp.w	r3, #65536	@ 0x10000
 810204c:	d073      	beq.n	8102136 <HAL_RCCEx_PeriphCLKConfig+0x37e>
 810204e:	2601      	movs	r6, #1
 8102050:	4634      	mov	r4, r6
 8102052:	682b      	ldr	r3, [r5, #0]
 8102054:	045a      	lsls	r2, r3, #17
 8102056:	d50e      	bpl.n	8102076 <HAL_RCCEx_PeriphCLKConfig+0x2be>
 8102058:	f8d5 30b4 	ldr.w	r3, [r5, #180]	@ 0xb4
 810205c:	f1b3 5f00 	cmp.w	r3, #536870912	@ 0x20000000
 8102060:	f000 8091 	beq.w	8102186 <HAL_RCCEx_PeriphCLKConfig+0x3ce>
 8102064:	d876      	bhi.n	8102154 <HAL_RCCEx_PeriphCLKConfig+0x39c>
 8102066:	2b00      	cmp	r3, #0
 8102068:	d07c      	beq.n	8102164 <HAL_RCCEx_PeriphCLKConfig+0x3ac>
 810206a:	f1b3 5f80 	cmp.w	r3, #268435456	@ 0x10000000
 810206e:	f000 8083 	beq.w	8102178 <HAL_RCCEx_PeriphCLKConfig+0x3c0>
 8102072:	2601      	movs	r6, #1
 8102074:	4634      	mov	r4, r6
 8102076:	682b      	ldr	r3, [r5, #0]
 8102078:	015b      	lsls	r3, r3, #5
 810207a:	d515      	bpl.n	81020a8 <HAL_RCCEx_PeriphCLKConfig+0x2f0>
 810207c:	6d2b      	ldr	r3, [r5, #80]	@ 0x50
 810207e:	b14b      	cbz	r3, 8102094 <HAL_RCCEx_PeriphCLKConfig+0x2dc>
 8102080:	f5b3 7f80 	cmp.w	r3, #256	@ 0x100
 8102084:	f040 8087 	bne.w	8102196 <HAL_RCCEx_PeriphCLKConfig+0x3de>
 8102088:	2101      	movs	r1, #1
 810208a:	f105 0008 	add.w	r0, r5, #8
 810208e:	f7ff fda7 	bl	8101be0 <RCCEx_PLL2_Config>
 8102092:	4604      	mov	r4, r0
 8102094:	2c00      	cmp	r4, #0
 8102096:	f040 8081 	bne.w	810219c <HAL_RCCEx_PeriphCLKConfig+0x3e4>
 810209a:	4a76      	ldr	r2, [pc, #472]	@ (8102274 <HAL_RCCEx_PeriphCLKConfig+0x4bc>)
 810209c:	6d29      	ldr	r1, [r5, #80]	@ 0x50
 810209e:	6cd3      	ldr	r3, [r2, #76]	@ 0x4c
 81020a0:	f423 7380 	bic.w	r3, r3, #256	@ 0x100
 81020a4:	430b      	orrs	r3, r1
 81020a6:	64d3      	str	r3, [r2, #76]	@ 0x4c
 81020a8:	682b      	ldr	r3, [r5, #0]
 81020aa:	041f      	lsls	r7, r3, #16
 81020ac:	d511      	bpl.n	81020d2 <HAL_RCCEx_PeriphCLKConfig+0x31a>
 81020ae:	6f6b      	ldr	r3, [r5, #116]	@ 0x74
 81020b0:	f1b3 5f80 	cmp.w	r3, #268435456	@ 0x10000000
 81020b4:	d074      	beq.n	81021a0 <HAL_RCCEx_PeriphCLKConfig+0x3e8>
 81020b6:	f1b3 5f00 	cmp.w	r3, #536870912	@ 0x20000000
 81020ba:	d077      	beq.n	81021ac <HAL_RCCEx_PeriphCLKConfig+0x3f4>
 81020bc:	2b00      	cmp	r3, #0
 81020be:	d17c      	bne.n	81021ba <HAL_RCCEx_PeriphCLKConfig+0x402>
 81020c0:	2c00      	cmp	r4, #0
 81020c2:	d17d      	bne.n	81021c0 <HAL_RCCEx_PeriphCLKConfig+0x408>
 81020c4:	4a6b      	ldr	r2, [pc, #428]	@ (8102274 <HAL_RCCEx_PeriphCLKConfig+0x4bc>)
 81020c6:	6f69      	ldr	r1, [r5, #116]	@ 0x74
 81020c8:	6d13      	ldr	r3, [r2, #80]	@ 0x50
 81020ca:	f023 5340 	bic.w	r3, r3, #805306368	@ 0x30000000
 81020ce:	430b      	orrs	r3, r1
 81020d0:	6513      	str	r3, [r2, #80]	@ 0x50
 81020d2:	682b      	ldr	r3, [r5, #0]
 81020d4:	01d8      	lsls	r0, r3, #7
 81020d6:	f140 8083 	bpl.w	81021e0 <HAL_RCCEx_PeriphCLKConfig+0x428>
 81020da:	6cab      	ldr	r3, [r5, #72]	@ 0x48
 81020dc:	2b03      	cmp	r3, #3
 81020de:	f200 80c4 	bhi.w	810226a <HAL_RCCEx_PeriphCLKConfig+0x4b2>
 81020e2:	e8df f003 	tbb	[pc, r3]
 81020e6:	6f74      	.short	0x6f74
 81020e8:	74bb      	.short	0x74bb
 81020ea:	4a62      	ldr	r2, [pc, #392]	@ (8102274 <HAL_RCCEx_PeriphCLKConfig+0x4bc>)
 81020ec:	6ad3      	ldr	r3, [r2, #44]	@ 0x2c
 81020ee:	f443 3300 	orr.w	r3, r3, #131072	@ 0x20000
 81020f2:	62d3      	str	r3, [r2, #44]	@ 0x2c
 81020f4:	e794      	b.n	8102020 <HAL_RCCEx_PeriphCLKConfig+0x268>
 81020f6:	2100      	movs	r1, #0
 81020f8:	f105 0008 	add.w	r0, r5, #8
 81020fc:	f7ff fd70 	bl	8101be0 <RCCEx_PLL2_Config>
 8102100:	4604      	mov	r4, r0
 8102102:	e78d      	b.n	8102020 <HAL_RCCEx_PeriphCLKConfig+0x268>
 8102104:	2100      	movs	r1, #0
 8102106:	f105 0028 	add.w	r0, r5, #40	@ 0x28
 810210a:	f7ff fddf 	bl	8101ccc <RCCEx_PLL3_Config>
 810210e:	e7f7      	b.n	8102100 <HAL_RCCEx_PeriphCLKConfig+0x348>
 8102110:	4626      	mov	r6, r4
 8102112:	e78e      	b.n	8102032 <HAL_RCCEx_PeriphCLKConfig+0x27a>
 8102114:	f423 3280 	bic.w	r2, r3, #65536	@ 0x10000
 8102118:	f5b2 2f80 	cmp.w	r2, #262144	@ 0x40000
 810211c:	d002      	beq.n	8102124 <HAL_RCCEx_PeriphCLKConfig+0x36c>
 810211e:	f5b3 3f40 	cmp.w	r3, #196608	@ 0x30000
 8102122:	d194      	bne.n	810204e <HAL_RCCEx_PeriphCLKConfig+0x296>
 8102124:	b9a4      	cbnz	r4, 8102150 <HAL_RCCEx_PeriphCLKConfig+0x398>
 8102126:	4a53      	ldr	r2, [pc, #332]	@ (8102274 <HAL_RCCEx_PeriphCLKConfig+0x4bc>)
 8102128:	6ea9      	ldr	r1, [r5, #104]	@ 0x68
 810212a:	6d13      	ldr	r3, [r2, #80]	@ 0x50
 810212c:	f423 23e0 	bic.w	r3, r3, #458752	@ 0x70000
 8102130:	430b      	orrs	r3, r1
 8102132:	6513      	str	r3, [r2, #80]	@ 0x50
 8102134:	e78d      	b.n	8102052 <HAL_RCCEx_PeriphCLKConfig+0x29a>
 8102136:	2101      	movs	r1, #1
 8102138:	f105 0008 	add.w	r0, r5, #8
 810213c:	f7ff fd50 	bl	8101be0 <RCCEx_PLL2_Config>
 8102140:	4604      	mov	r4, r0
 8102142:	e7ef      	b.n	8102124 <HAL_RCCEx_PeriphCLKConfig+0x36c>
 8102144:	2101      	movs	r1, #1
 8102146:	f105 0028 	add.w	r0, r5, #40	@ 0x28
 810214a:	f7ff fdbf 	bl	8101ccc <RCCEx_PLL3_Config>
 810214e:	e7f7      	b.n	8102140 <HAL_RCCEx_PeriphCLKConfig+0x388>
 8102150:	4626      	mov	r6, r4
 8102152:	e77e      	b.n	8102052 <HAL_RCCEx_PeriphCLKConfig+0x29a>
 8102154:	f023 5280 	bic.w	r2, r3, #268435456	@ 0x10000000
 8102158:	f1b2 4f80 	cmp.w	r2, #1073741824	@ 0x40000000
 810215c:	d002      	beq.n	8102164 <HAL_RCCEx_PeriphCLKConfig+0x3ac>
 810215e:	f1b3 5f40 	cmp.w	r3, #805306368	@ 0x30000000
 8102162:	d186      	bne.n	8102072 <HAL_RCCEx_PeriphCLKConfig+0x2ba>
 8102164:	b9ac      	cbnz	r4, 8102192 <HAL_RCCEx_PeriphCLKConfig+0x3da>
 8102166:	4a43      	ldr	r2, [pc, #268]	@ (8102274 <HAL_RCCEx_PeriphCLKConfig+0x4bc>)
 8102168:	f8d5 10b4 	ldr.w	r1, [r5, #180]	@ 0xb4
 810216c:	6d93      	ldr	r3, [r2, #88]	@ 0x58
 810216e:	f023 43e0 	bic.w	r3, r3, #1879048192	@ 0x70000000
 8102172:	430b      	orrs	r3, r1
 8102174:	6593      	str	r3, [r2, #88]	@ 0x58
 8102176:	e77e      	b.n	8102076 <HAL_RCCEx_PeriphCLKConfig+0x2be>
 8102178:	2101      	movs	r1, #1
 810217a:	f105 0008 	add.w	r0, r5, #8
 810217e:	f7ff fd2f 	bl	8101be0 <RCCEx_PLL2_Config>
 8102182:	4604      	mov	r4, r0
 8102184:	e7ee      	b.n	8102164 <HAL_RCCEx_PeriphCLKConfig+0x3ac>
 8102186:	2101      	movs	r1, #1
 8102188:	f105 0028 	add.w	r0, r5, #40	@ 0x28
 810218c:	f7ff fd9e 	bl	8101ccc <RCCEx_PLL3_Config>
 8102190:	e7f7      	b.n	8102182 <HAL_RCCEx_PeriphCLKConfig+0x3ca>
 8102192:	4626      	mov	r6, r4
 8102194:	e76f      	b.n	8102076 <HAL_RCCEx_PeriphCLKConfig+0x2be>
 8102196:	2601      	movs	r6, #1
 8102198:	4634      	mov	r4, r6
 810219a:	e785      	b.n	81020a8 <HAL_RCCEx_PeriphCLKConfig+0x2f0>
 810219c:	4626      	mov	r6, r4
 810219e:	e783      	b.n	81020a8 <HAL_RCCEx_PeriphCLKConfig+0x2f0>
 81021a0:	4a34      	ldr	r2, [pc, #208]	@ (8102274 <HAL_RCCEx_PeriphCLKConfig+0x4bc>)
 81021a2:	6ad3      	ldr	r3, [r2, #44]	@ 0x2c
 81021a4:	f443 3300 	orr.w	r3, r3, #131072	@ 0x20000
 81021a8:	62d3      	str	r3, [r2, #44]	@ 0x2c
 81021aa:	e789      	b.n	81020c0 <HAL_RCCEx_PeriphCLKConfig+0x308>
 81021ac:	2101      	movs	r1, #1
 81021ae:	f105 0008 	add.w	r0, r5, #8
 81021b2:	f7ff fd15 	bl	8101be0 <RCCEx_PLL2_Config>
 81021b6:	4604      	mov	r4, r0
 81021b8:	e782      	b.n	81020c0 <HAL_RCCEx_PeriphCLKConfig+0x308>
 81021ba:	2601      	movs	r6, #1
 81021bc:	4634      	mov	r4, r6
 81021be:	e788      	b.n	81020d2 <HAL_RCCEx_PeriphCLKConfig+0x31a>
 81021c0:	4626      	mov	r6, r4
 81021c2:	e786      	b.n	81020d2 <HAL_RCCEx_PeriphCLKConfig+0x31a>
 81021c4:	4a2b      	ldr	r2, [pc, #172]	@ (8102274 <HAL_RCCEx_PeriphCLKConfig+0x4bc>)
 81021c6:	6ad3      	ldr	r3, [r2, #44]	@ 0x2c
 81021c8:	f443 3300 	orr.w	r3, r3, #131072	@ 0x20000
 81021cc:	62d3      	str	r3, [r2, #44]	@ 0x2c
 81021ce:	2c00      	cmp	r4, #0
 81021d0:	d14e      	bne.n	8102270 <HAL_RCCEx_PeriphCLKConfig+0x4b8>
 81021d2:	4a28      	ldr	r2, [pc, #160]	@ (8102274 <HAL_RCCEx_PeriphCLKConfig+0x4bc>)
 81021d4:	6ca9      	ldr	r1, [r5, #72]	@ 0x48
 81021d6:	6cd3      	ldr	r3, [r2, #76]	@ 0x4c
 81021d8:	f023 0303 	bic.w	r3, r3, #3
 81021dc:	430b      	orrs	r3, r1
 81021de:	64d3      	str	r3, [r2, #76]	@ 0x4c
 81021e0:	682b      	ldr	r3, [r5, #0]
 81021e2:	0259      	lsls	r1, r3, #9
 81021e4:	d554      	bpl.n	8102290 <HAL_RCCEx_PeriphCLKConfig+0x4d8>
 81021e6:	4f24      	ldr	r7, [pc, #144]	@ (8102278 <HAL_RCCEx_PeriphCLKConfig+0x4c0>)
 81021e8:	683b      	ldr	r3, [r7, #0]
 81021ea:	f443 7380 	orr.w	r3, r3, #256	@ 0x100
 81021ee:	603b      	str	r3, [r7, #0]
 81021f0:	f7ff f8e8 	bl	81013c4 <HAL_GetTick>
 81021f4:	4680      	mov	r8, r0
 81021f6:	683b      	ldr	r3, [r7, #0]
 81021f8:	05da      	lsls	r2, r3, #23
 81021fa:	d541      	bpl.n	8102280 <HAL_RCCEx_PeriphCLKConfig+0x4c8>
 81021fc:	2c00      	cmp	r4, #0
 81021fe:	d174      	bne.n	81022ea <HAL_RCCEx_PeriphCLKConfig+0x532>
 8102200:	4b1c      	ldr	r3, [pc, #112]	@ (8102274 <HAL_RCCEx_PeriphCLKConfig+0x4bc>)
 8102202:	f8d5 00b8 	ldr.w	r0, [r5, #184]	@ 0xb8
 8102206:	6f1a      	ldr	r2, [r3, #112]	@ 0x70
 8102208:	4042      	eors	r2, r0
 810220a:	f412 7f40 	tst.w	r2, #768	@ 0x300
 810220e:	d00b      	beq.n	8102228 <HAL_RCCEx_PeriphCLKConfig+0x470>
 8102210:	6f1a      	ldr	r2, [r3, #112]	@ 0x70
 8102212:	6f19      	ldr	r1, [r3, #112]	@ 0x70
 8102214:	f441 3180 	orr.w	r1, r1, #65536	@ 0x10000
 8102218:	6719      	str	r1, [r3, #112]	@ 0x70
 810221a:	6f19      	ldr	r1, [r3, #112]	@ 0x70
 810221c:	f422 7240 	bic.w	r2, r2, #768	@ 0x300
 8102220:	f421 3180 	bic.w	r1, r1, #65536	@ 0x10000
 8102224:	6719      	str	r1, [r3, #112]	@ 0x70
 8102226:	671a      	str	r2, [r3, #112]	@ 0x70
 8102228:	f5b0 7f80 	cmp.w	r0, #256	@ 0x100
 810222c:	d048      	beq.n	81022c0 <HAL_RCCEx_PeriphCLKConfig+0x508>
 810222e:	f8d5 30b8 	ldr.w	r3, [r5, #184]	@ 0xb8
 8102232:	4910      	ldr	r1, [pc, #64]	@ (8102274 <HAL_RCCEx_PeriphCLKConfig+0x4bc>)
 8102234:	f403 7240 	and.w	r2, r3, #768	@ 0x300
 8102238:	f5b2 7f40 	cmp.w	r2, #768	@ 0x300
 810223c:	d151      	bne.n	81022e2 <HAL_RCCEx_PeriphCLKConfig+0x52a>
 810223e:	6908      	ldr	r0, [r1, #16]
 8102240:	4a0e      	ldr	r2, [pc, #56]	@ (810227c <HAL_RCCEx_PeriphCLKConfig+0x4c4>)
 8102242:	f420 507c 	bic.w	r0, r0, #16128	@ 0x3f00
 8102246:	ea02 1213 	and.w	r2, r2, r3, lsr #4
 810224a:	4302      	orrs	r2, r0
 810224c:	610a      	str	r2, [r1, #16]
 810224e:	4a09      	ldr	r2, [pc, #36]	@ (8102274 <HAL_RCCEx_PeriphCLKConfig+0x4bc>)
 8102250:	6f11      	ldr	r1, [r2, #112]	@ 0x70
 8102252:	f3c3 030b 	ubfx	r3, r3, #0, #12
 8102256:	430b      	orrs	r3, r1
 8102258:	6713      	str	r3, [r2, #112]	@ 0x70
 810225a:	e019      	b.n	8102290 <HAL_RCCEx_PeriphCLKConfig+0x4d8>
 810225c:	2102      	movs	r1, #2
 810225e:	f105 0008 	add.w	r0, r5, #8
 8102262:	f7ff fcbd 	bl	8101be0 <RCCEx_PLL2_Config>
 8102266:	4604      	mov	r4, r0
 8102268:	e7b1      	b.n	81021ce <HAL_RCCEx_PeriphCLKConfig+0x416>
 810226a:	2601      	movs	r6, #1
 810226c:	4634      	mov	r4, r6
 810226e:	e7b7      	b.n	81021e0 <HAL_RCCEx_PeriphCLKConfig+0x428>
 8102270:	4626      	mov	r6, r4
 8102272:	e7b5      	b.n	81021e0 <HAL_RCCEx_PeriphCLKConfig+0x428>
 8102274:	58024400 	.word	0x58024400
 8102278:	58024800 	.word	0x58024800
 810227c:	00ffffcf 	.word	0x00ffffcf
 8102280:	f7ff f8a0 	bl	81013c4 <HAL_GetTick>
 8102284:	eba0 0008 	sub.w	r0, r0, r8
 8102288:	2864      	cmp	r0, #100	@ 0x64
 810228a:	d9b4      	bls.n	81021f6 <HAL_RCCEx_PeriphCLKConfig+0x43e>
 810228c:	2603      	movs	r6, #3
 810228e:	4634      	mov	r4, r6
 8102290:	682b      	ldr	r3, [r5, #0]
 8102292:	07d8      	lsls	r0, r3, #31
 8102294:	d509      	bpl.n	81022aa <HAL_RCCEx_PeriphCLKConfig+0x4f2>
 8102296:	f8d5 3080 	ldr.w	r3, [r5, #128]	@ 0x80
 810229a:	2b10      	cmp	r3, #16
 810229c:	d03e      	beq.n	810231c <HAL_RCCEx_PeriphCLKConfig+0x564>
 810229e:	d826      	bhi.n	81022ee <HAL_RCCEx_PeriphCLKConfig+0x536>
 81022a0:	b35b      	cbz	r3, 81022fa <HAL_RCCEx_PeriphCLKConfig+0x542>
 81022a2:	2b08      	cmp	r3, #8
 81022a4:	d033      	beq.n	810230e <HAL_RCCEx_PeriphCLKConfig+0x556>
 81022a6:	2601      	movs	r6, #1
 81022a8:	4634      	mov	r4, r6
 81022aa:	682b      	ldr	r3, [r5, #0]
 81022ac:	0799      	lsls	r1, r3, #30
 81022ae:	d54b      	bpl.n	8102348 <HAL_RCCEx_PeriphCLKConfig+0x590>
 81022b0:	6feb      	ldr	r3, [r5, #124]	@ 0x7c
 81022b2:	2b05      	cmp	r3, #5
 81022b4:	d85e      	bhi.n	8102374 <HAL_RCCEx_PeriphCLKConfig+0x5bc>
 81022b6:	e8df f003 	tbb	[pc, r3]
 81022ba:	393f      	.short	0x393f
 81022bc:	3f3f3f57 	.word	0x3f3f3f57
 81022c0:	f7ff f880 	bl	81013c4 <HAL_GetTick>
 81022c4:	f8df 80b8 	ldr.w	r8, [pc, #184]	@ 8102380 <HAL_RCCEx_PeriphCLKConfig+0x5c8>
 81022c8:	4607      	mov	r7, r0
 81022ca:	f241 3988 	movw	r9, #5000	@ 0x1388
 81022ce:	f8d8 3070 	ldr.w	r3, [r8, #112]	@ 0x70
 81022d2:	079b      	lsls	r3, r3, #30
 81022d4:	d4ab      	bmi.n	810222e <HAL_RCCEx_PeriphCLKConfig+0x476>
 81022d6:	f7ff f875 	bl	81013c4 <HAL_GetTick>
 81022da:	1bc0      	subs	r0, r0, r7
 81022dc:	4548      	cmp	r0, r9
 81022de:	d9f6      	bls.n	81022ce <HAL_RCCEx_PeriphCLKConfig+0x516>
 81022e0:	e7d4      	b.n	810228c <HAL_RCCEx_PeriphCLKConfig+0x4d4>
 81022e2:	690a      	ldr	r2, [r1, #16]
 81022e4:	f422 527c 	bic.w	r2, r2, #16128	@ 0x3f00
 81022e8:	e7b0      	b.n	810224c <HAL_RCCEx_PeriphCLKConfig+0x494>
 81022ea:	4626      	mov	r6, r4
 81022ec:	e7d0      	b.n	8102290 <HAL_RCCEx_PeriphCLKConfig+0x4d8>
 81022ee:	f023 0208 	bic.w	r2, r3, #8
 81022f2:	2a20      	cmp	r2, #32
 81022f4:	d001      	beq.n	81022fa <HAL_RCCEx_PeriphCLKConfig+0x542>
 81022f6:	2b18      	cmp	r3, #24
 81022f8:	d1d5      	bne.n	81022a6 <HAL_RCCEx_PeriphCLKConfig+0x4ee>
 81022fa:	b9ac      	cbnz	r4, 8102328 <HAL_RCCEx_PeriphCLKConfig+0x570>
 81022fc:	4a20      	ldr	r2, [pc, #128]	@ (8102380 <HAL_RCCEx_PeriphCLKConfig+0x5c8>)
 81022fe:	f8d5 1080 	ldr.w	r1, [r5, #128]	@ 0x80
 8102302:	6d53      	ldr	r3, [r2, #84]	@ 0x54
 8102304:	f023 0338 	bic.w	r3, r3, #56	@ 0x38
 8102308:	430b      	orrs	r3, r1
 810230a:	6553      	str	r3, [r2, #84]	@ 0x54
 810230c:	e7cd      	b.n	81022aa <HAL_RCCEx_PeriphCLKConfig+0x4f2>
 810230e:	2101      	movs	r1, #1
 8102310:	f105 0008 	add.w	r0, r5, #8
 8102314:	f7ff fc64 	bl	8101be0 <RCCEx_PLL2_Config>
 8102318:	4604      	mov	r4, r0
 810231a:	e7ee      	b.n	81022fa <HAL_RCCEx_PeriphCLKConfig+0x542>
 810231c:	2101      	movs	r1, #1
 810231e:	f105 0028 	add.w	r0, r5, #40	@ 0x28
 8102322:	f7ff fcd3 	bl	8101ccc <RCCEx_PLL3_Config>
 8102326:	e7f7      	b.n	8102318 <HAL_RCCEx_PeriphCLKConfig+0x560>
 8102328:	4626      	mov	r6, r4
 810232a:	e7be      	b.n	81022aa <HAL_RCCEx_PeriphCLKConfig+0x4f2>
 810232c:	2101      	movs	r1, #1
 810232e:	f105 0008 	add.w	r0, r5, #8
 8102332:	f7ff fc55 	bl	8101be0 <RCCEx_PLL2_Config>
 8102336:	4604      	mov	r4, r0
 8102338:	b9fc      	cbnz	r4, 810237a <HAL_RCCEx_PeriphCLKConfig+0x5c2>
 810233a:	4a11      	ldr	r2, [pc, #68]	@ (8102380 <HAL_RCCEx_PeriphCLKConfig+0x5c8>)
 810233c:	6fe9      	ldr	r1, [r5, #124]	@ 0x7c
 810233e:	6d53      	ldr	r3, [r2, #84]	@ 0x54
 8102340:	f023 0307 	bic.w	r3, r3, #7
 8102344:	430b      	orrs	r3, r1
 8102346:	6553      	str	r3, [r2, #84]	@ 0x54
 8102348:	682b      	ldr	r3, [r5, #0]
 810234a:	075a      	lsls	r2, r3, #29
 810234c:	d52b      	bpl.n	81023a6 <HAL_RCCEx_PeriphCLKConfig+0x5ee>
 810234e:	f8d5 3098 	ldr.w	r3, [r5, #152]	@ 0x98
 8102352:	2b05      	cmp	r3, #5
 8102354:	f200 816e 	bhi.w	8102634 <HAL_RCCEx_PeriphCLKConfig+0x87c>
 8102358:	e8df f013 	tbh	[pc, r3, lsl #1]
 810235c:	0014001a 	.word	0x0014001a
 8102360:	001a0166 	.word	0x001a0166
 8102364:	001a001a 	.word	0x001a001a
 8102368:	2101      	movs	r1, #1
 810236a:	f105 0028 	add.w	r0, r5, #40	@ 0x28
 810236e:	f7ff fcad 	bl	8101ccc <RCCEx_PLL3_Config>
 8102372:	e7e0      	b.n	8102336 <HAL_RCCEx_PeriphCLKConfig+0x57e>
 8102374:	2601      	movs	r6, #1
 8102376:	4634      	mov	r4, r6
 8102378:	e7e6      	b.n	8102348 <HAL_RCCEx_PeriphCLKConfig+0x590>
 810237a:	4626      	mov	r6, r4
 810237c:	e7e4      	b.n	8102348 <HAL_RCCEx_PeriphCLKConfig+0x590>
 810237e:	bf00      	nop
 8102380:	58024400 	.word	0x58024400
 8102384:	2101      	movs	r1, #1
 8102386:	f105 0008 	add.w	r0, r5, #8
 810238a:	f7ff fc29 	bl	8101be0 <RCCEx_PLL2_Config>
 810238e:	4604      	mov	r4, r0
 8102390:	2c00      	cmp	r4, #0
 8102392:	f040 8152 	bne.w	810263a <HAL_RCCEx_PeriphCLKConfig+0x882>
 8102396:	4aaa      	ldr	r2, [pc, #680]	@ (8102640 <HAL_RCCEx_PeriphCLKConfig+0x888>)
 8102398:	f8d5 1098 	ldr.w	r1, [r5, #152]	@ 0x98
 810239c:	6d93      	ldr	r3, [r2, #88]	@ 0x58
 810239e:	f023 0307 	bic.w	r3, r3, #7
 81023a2:	430b      	orrs	r3, r1
 81023a4:	6593      	str	r3, [r2, #88]	@ 0x58
 81023a6:	682b      	ldr	r3, [r5, #0]
 81023a8:	069b      	lsls	r3, r3, #26
 81023aa:	d510      	bpl.n	81023ce <HAL_RCCEx_PeriphCLKConfig+0x616>
 81023ac:	f8d5 3094 	ldr.w	r3, [r5, #148]	@ 0x94
 81023b0:	f1b3 5f00 	cmp.w	r3, #536870912	@ 0x20000000
 81023b4:	f000 8160 	beq.w	8102678 <HAL_RCCEx_PeriphCLKConfig+0x8c0>
 81023b8:	f200 8144 	bhi.w	8102644 <HAL_RCCEx_PeriphCLKConfig+0x88c>
 81023bc:	2b00      	cmp	r3, #0
 81023be:	f000 814a 	beq.w	8102656 <HAL_RCCEx_PeriphCLKConfig+0x89e>
 81023c2:	f1b3 5f80 	cmp.w	r3, #268435456	@ 0x10000000
 81023c6:	f000 8150 	beq.w	810266a <HAL_RCCEx_PeriphCLKConfig+0x8b2>
 81023ca:	2601      	movs	r6, #1
 81023cc:	4634      	mov	r4, r6
 81023ce:	682b      	ldr	r3, [r5, #0]
 81023d0:	065f      	lsls	r7, r3, #25
 81023d2:	d510      	bpl.n	81023f6 <HAL_RCCEx_PeriphCLKConfig+0x63e>
 81023d4:	f8d5 30a0 	ldr.w	r3, [r5, #160]	@ 0xa0
 81023d8:	f5b3 6f00 	cmp.w	r3, #2048	@ 0x800
 81023dc:	f000 816e 	beq.w	81026bc <HAL_RCCEx_PeriphCLKConfig+0x904>
 81023e0:	f200 8152 	bhi.w	8102688 <HAL_RCCEx_PeriphCLKConfig+0x8d0>
 81023e4:	2b00      	cmp	r3, #0
 81023e6:	f000 8158 	beq.w	810269a <HAL_RCCEx_PeriphCLKConfig+0x8e2>
 81023ea:	f5b3 6f80 	cmp.w	r3, #1024	@ 0x400
 81023ee:	f000 815e 	beq.w	81026ae <HAL_RCCEx_PeriphCLKConfig+0x8f6>
 81023f2:	2601      	movs	r6, #1
 81023f4:	4634      	mov	r4, r6
 81023f6:	682b      	ldr	r3, [r5, #0]
 81023f8:	0618      	lsls	r0, r3, #24
 81023fa:	d510      	bpl.n	810241e <HAL_RCCEx_PeriphCLKConfig+0x666>
 81023fc:	f8d5 30a4 	ldr.w	r3, [r5, #164]	@ 0xa4
 8102400:	f5b3 4f80 	cmp.w	r3, #16384	@ 0x4000
 8102404:	f000 817c 	beq.w	8102700 <HAL_RCCEx_PeriphCLKConfig+0x948>
 8102408:	f200 8160 	bhi.w	81026cc <HAL_RCCEx_PeriphCLKConfig+0x914>
 810240c:	2b00      	cmp	r3, #0
 810240e:	f000 8166 	beq.w	81026de <HAL_RCCEx_PeriphCLKConfig+0x926>
 8102412:	f5b3 5f00 	cmp.w	r3, #8192	@ 0x2000
 8102416:	f000 816c 	beq.w	81026f2 <HAL_RCCEx_PeriphCLKConfig+0x93a>
 810241a:	2601      	movs	r6, #1
 810241c:	4634      	mov	r4, r6
 810241e:	682b      	ldr	r3, [r5, #0]
 8102420:	0719      	lsls	r1, r3, #28
 8102422:	d514      	bpl.n	810244e <HAL_RCCEx_PeriphCLKConfig+0x696>
 8102424:	f8d5 3088 	ldr.w	r3, [r5, #136]	@ 0x88
 8102428:	f5b3 5f80 	cmp.w	r3, #4096	@ 0x1000
 810242c:	d107      	bne.n	810243e <HAL_RCCEx_PeriphCLKConfig+0x686>
 810242e:	2102      	movs	r1, #2
 8102430:	f105 0028 	add.w	r0, r5, #40	@ 0x28
 8102434:	f7ff fc4a 	bl	8101ccc <RCCEx_PLL3_Config>
 8102438:	2800      	cmp	r0, #0
 810243a:	bf18      	it	ne
 810243c:	2601      	movne	r6, #1
 810243e:	4a80      	ldr	r2, [pc, #512]	@ (8102640 <HAL_RCCEx_PeriphCLKConfig+0x888>)
 8102440:	f8d5 1088 	ldr.w	r1, [r5, #136]	@ 0x88
 8102444:	6d53      	ldr	r3, [r2, #84]	@ 0x54
 8102446:	f423 5340 	bic.w	r3, r3, #12288	@ 0x3000
 810244a:	430b      	orrs	r3, r1
 810244c:	6553      	str	r3, [r2, #84]	@ 0x54
 810244e:	682b      	ldr	r3, [r5, #0]
 8102450:	06da      	lsls	r2, r3, #27
 8102452:	d514      	bpl.n	810247e <HAL_RCCEx_PeriphCLKConfig+0x6c6>
 8102454:	f8d5 309c 	ldr.w	r3, [r5, #156]	@ 0x9c
 8102458:	f5b3 7f80 	cmp.w	r3, #256	@ 0x100
 810245c:	d107      	bne.n	810246e <HAL_RCCEx_PeriphCLKConfig+0x6b6>
 810245e:	2102      	movs	r1, #2
 8102460:	f105 0028 	add.w	r0, r5, #40	@ 0x28
 8102464:	f7ff fc32 	bl	8101ccc <RCCEx_PLL3_Config>
 8102468:	2800      	cmp	r0, #0
 810246a:	bf18      	it	ne
 810246c:	2601      	movne	r6, #1
 810246e:	4a74      	ldr	r2, [pc, #464]	@ (8102640 <HAL_RCCEx_PeriphCLKConfig+0x888>)
 8102470:	f8d5 109c 	ldr.w	r1, [r5, #156]	@ 0x9c
 8102474:	6d93      	ldr	r3, [r2, #88]	@ 0x58
 8102476:	f423 7340 	bic.w	r3, r3, #768	@ 0x300
 810247a:	430b      	orrs	r3, r1
 810247c:	6593      	str	r3, [r2, #88]	@ 0x58
 810247e:	682b      	ldr	r3, [r5, #0]
 8102480:	031b      	lsls	r3, r3, #12
 8102482:	d51b      	bpl.n	81024bc <HAL_RCCEx_PeriphCLKConfig+0x704>
 8102484:	f8d5 10a8 	ldr.w	r1, [r5, #168]	@ 0xa8
 8102488:	f5b1 3f80 	cmp.w	r1, #65536	@ 0x10000
 810248c:	f000 8140 	beq.w	8102710 <HAL_RCCEx_PeriphCLKConfig+0x958>
 8102490:	f5b1 3f00 	cmp.w	r1, #131072	@ 0x20000
 8102494:	d007      	beq.n	81024a6 <HAL_RCCEx_PeriphCLKConfig+0x6ee>
 8102496:	2900      	cmp	r1, #0
 8102498:	f040 8140 	bne.w	810271c <HAL_RCCEx_PeriphCLKConfig+0x964>
 810249c:	f105 0008 	add.w	r0, r5, #8
 81024a0:	f7ff fb9e 	bl	8101be0 <RCCEx_PLL2_Config>
 81024a4:	4604      	mov	r4, r0
 81024a6:	2c00      	cmp	r4, #0
 81024a8:	f040 813b 	bne.w	8102722 <HAL_RCCEx_PeriphCLKConfig+0x96a>
 81024ac:	4a64      	ldr	r2, [pc, #400]	@ (8102640 <HAL_RCCEx_PeriphCLKConfig+0x888>)
 81024ae:	f8d5 10a8 	ldr.w	r1, [r5, #168]	@ 0xa8
 81024b2:	6d93      	ldr	r3, [r2, #88]	@ 0x58
 81024b4:	f423 3340 	bic.w	r3, r3, #196608	@ 0x30000
 81024b8:	430b      	orrs	r3, r1
 81024ba:	6593      	str	r3, [r2, #88]	@ 0x58
 81024bc:	682b      	ldr	r3, [r5, #0]
 81024be:	035f      	lsls	r7, r3, #13
 81024c0:	d50f      	bpl.n	81024e2 <HAL_RCCEx_PeriphCLKConfig+0x72a>
 81024c2:	f8d5 308c 	ldr.w	r3, [r5, #140]	@ 0x8c
 81024c6:	f5b3 1f00 	cmp.w	r3, #2097152	@ 0x200000
 81024ca:	f000 813b 	beq.w	8102744 <HAL_RCCEx_PeriphCLKConfig+0x98c>
 81024ce:	f5b3 1f40 	cmp.w	r3, #3145728	@ 0x300000
 81024d2:	f000 812d 	beq.w	8102730 <HAL_RCCEx_PeriphCLKConfig+0x978>
 81024d6:	f5b3 1f80 	cmp.w	r3, #1048576	@ 0x100000
 81024da:	f000 8124 	beq.w	8102726 <HAL_RCCEx_PeriphCLKConfig+0x96e>
 81024de:	2601      	movs	r6, #1
 81024e0:	4634      	mov	r4, r6
 81024e2:	682b      	ldr	r3, [r5, #0]
 81024e4:	03d8      	lsls	r0, r3, #15
 81024e6:	d509      	bpl.n	81024fc <HAL_RCCEx_PeriphCLKConfig+0x744>
 81024e8:	6d6b      	ldr	r3, [r5, #84]	@ 0x54
 81024ea:	2b00      	cmp	r3, #0
 81024ec:	f000 8133 	beq.w	8102756 <HAL_RCCEx_PeriphCLKConfig+0x99e>
 81024f0:	f5b3 3f80 	cmp.w	r3, #65536	@ 0x10000
 81024f4:	f000 813d 	beq.w	8102772 <HAL_RCCEx_PeriphCLKConfig+0x9ba>
 81024f8:	2601      	movs	r6, #1
 81024fa:	4634      	mov	r4, r6
 81024fc:	682b      	ldr	r3, [r5, #0]
 81024fe:	0099      	lsls	r1, r3, #2
 8102500:	d507      	bpl.n	8102512 <HAL_RCCEx_PeriphCLKConfig+0x75a>
 8102502:	2102      	movs	r1, #2
 8102504:	f105 0028 	add.w	r0, r5, #40	@ 0x28
 8102508:	f7ff fbe0 	bl	8101ccc <RCCEx_PLL3_Config>
 810250c:	2800      	cmp	r0, #0
 810250e:	bf18      	it	ne
 8102510:	2601      	movne	r6, #1
 8102512:	e9d5 3100 	ldrd	r3, r1, [r5]
 8102516:	039a      	lsls	r2, r3, #14
 8102518:	f140 8143 	bpl.w	81027a2 <HAL_RCCEx_PeriphCLKConfig+0x9ea>
 810251c:	f8d5 0084 	ldr.w	r0, [r5, #132]	@ 0x84
 8102520:	f5b0 7f80 	cmp.w	r0, #256	@ 0x100
 8102524:	f000 813f 	beq.w	81027a6 <HAL_RCCEx_PeriphCLKConfig+0x9ee>
 8102528:	f200 812c 	bhi.w	8102784 <HAL_RCCEx_PeriphCLKConfig+0x9cc>
 810252c:	2800      	cmp	r0, #0
 810252e:	f000 812f 	beq.w	8102790 <HAL_RCCEx_PeriphCLKConfig+0x9d8>
 8102532:	2401      	movs	r4, #1
 8102534:	02df      	lsls	r7, r3, #11
 8102536:	d506      	bpl.n	8102546 <HAL_RCCEx_PeriphCLKConfig+0x78e>
 8102538:	4841      	ldr	r0, [pc, #260]	@ (8102640 <HAL_RCCEx_PeriphCLKConfig+0x888>)
 810253a:	6fae      	ldr	r6, [r5, #120]	@ 0x78
 810253c:	6d02      	ldr	r2, [r0, #80]	@ 0x50
 810253e:	f022 4200 	bic.w	r2, r2, #2147483648	@ 0x80000000
 8102542:	4332      	orrs	r2, r6
 8102544:	6502      	str	r2, [r0, #80]	@ 0x50
 8102546:	00de      	lsls	r6, r3, #3
 8102548:	d507      	bpl.n	810255a <HAL_RCCEx_PeriphCLKConfig+0x7a2>
 810254a:	483d      	ldr	r0, [pc, #244]	@ (8102640 <HAL_RCCEx_PeriphCLKConfig+0x888>)
 810254c:	f8d5 60bc 	ldr.w	r6, [r5, #188]	@ 0xbc
 8102550:	6902      	ldr	r2, [r0, #16]
 8102552:	f422 4280 	bic.w	r2, r2, #16384	@ 0x4000
 8102556:	4332      	orrs	r2, r6
 8102558:	6102      	str	r2, [r0, #16]
 810255a:	0298      	lsls	r0, r3, #10
 810255c:	d506      	bpl.n	810256c <HAL_RCCEx_PeriphCLKConfig+0x7b4>
 810255e:	4838      	ldr	r0, [pc, #224]	@ (8102640 <HAL_RCCEx_PeriphCLKConfig+0x888>)
 8102560:	6f2e      	ldr	r6, [r5, #112]	@ 0x70
 8102562:	6d02      	ldr	r2, [r0, #80]	@ 0x50
 8102564:	f022 7280 	bic.w	r2, r2, #16777216	@ 0x1000000
 8102568:	4332      	orrs	r2, r6
 810256a:	6502      	str	r2, [r0, #80]	@ 0x50
 810256c:	005a      	lsls	r2, r3, #1
 810256e:	d509      	bpl.n	8102584 <HAL_RCCEx_PeriphCLKConfig+0x7cc>
 8102570:	4a33      	ldr	r2, [pc, #204]	@ (8102640 <HAL_RCCEx_PeriphCLKConfig+0x888>)
 8102572:	6910      	ldr	r0, [r2, #16]
 8102574:	f420 4000 	bic.w	r0, r0, #32768	@ 0x8000
 8102578:	6110      	str	r0, [r2, #16]
 810257a:	6910      	ldr	r0, [r2, #16]
 810257c:	f8d5 60c0 	ldr.w	r6, [r5, #192]	@ 0xc0
 8102580:	4330      	orrs	r0, r6
 8102582:	6110      	str	r0, [r2, #16]
 8102584:	2b00      	cmp	r3, #0
 8102586:	da06      	bge.n	8102596 <HAL_RCCEx_PeriphCLKConfig+0x7de>
 8102588:	482d      	ldr	r0, [pc, #180]	@ (8102640 <HAL_RCCEx_PeriphCLKConfig+0x888>)
 810258a:	6dae      	ldr	r6, [r5, #88]	@ 0x58
 810258c:	6cc2      	ldr	r2, [r0, #76]	@ 0x4c
 810258e:	f022 5240 	bic.w	r2, r2, #805306368	@ 0x30000000
 8102592:	4332      	orrs	r2, r6
 8102594:	64c2      	str	r2, [r0, #76]	@ 0x4c
 8102596:	021f      	lsls	r7, r3, #8
 8102598:	d507      	bpl.n	81025aa <HAL_RCCEx_PeriphCLKConfig+0x7f2>
 810259a:	4a29      	ldr	r2, [pc, #164]	@ (8102640 <HAL_RCCEx_PeriphCLKConfig+0x888>)
 810259c:	f8d5 0090 	ldr.w	r0, [r5, #144]	@ 0x90
 81025a0:	6d53      	ldr	r3, [r2, #84]	@ 0x54
 81025a2:	f423 0340 	bic.w	r3, r3, #12582912	@ 0xc00000
 81025a6:	4303      	orrs	r3, r0
 81025a8:	6553      	str	r3, [r2, #84]	@ 0x54
 81025aa:	07ce      	lsls	r6, r1, #31
 81025ac:	d506      	bpl.n	81025bc <HAL_RCCEx_PeriphCLKConfig+0x804>
 81025ae:	2100      	movs	r1, #0
 81025b0:	f105 0008 	add.w	r0, r5, #8
 81025b4:	f7ff fb14 	bl	8101be0 <RCCEx_PLL2_Config>
 81025b8:	4607      	mov	r7, r0
 81025ba:	b900      	cbnz	r0, 81025be <HAL_RCCEx_PeriphCLKConfig+0x806>
 81025bc:	4627      	mov	r7, r4
 81025be:	686b      	ldr	r3, [r5, #4]
 81025c0:	079c      	lsls	r4, r3, #30
 81025c2:	d506      	bpl.n	81025d2 <HAL_RCCEx_PeriphCLKConfig+0x81a>
 81025c4:	2101      	movs	r1, #1
 81025c6:	f105 0008 	add.w	r0, r5, #8
 81025ca:	f7ff fb09 	bl	8101be0 <RCCEx_PLL2_Config>
 81025ce:	4606      	mov	r6, r0
 81025d0:	b900      	cbnz	r0, 81025d4 <HAL_RCCEx_PeriphCLKConfig+0x81c>
 81025d2:	463e      	mov	r6, r7
 81025d4:	686b      	ldr	r3, [r5, #4]
 81025d6:	0758      	lsls	r0, r3, #29
 81025d8:	d506      	bpl.n	81025e8 <HAL_RCCEx_PeriphCLKConfig+0x830>
 81025da:	2102      	movs	r1, #2
 81025dc:	f105 0008 	add.w	r0, r5, #8
 81025e0:	f7ff fafe 	bl	8101be0 <RCCEx_PLL2_Config>
 81025e4:	4604      	mov	r4, r0
 81025e6:	b900      	cbnz	r0, 81025ea <HAL_RCCEx_PeriphCLKConfig+0x832>
 81025e8:	4634      	mov	r4, r6
 81025ea:	686b      	ldr	r3, [r5, #4]
 81025ec:	0719      	lsls	r1, r3, #28
 81025ee:	d506      	bpl.n	81025fe <HAL_RCCEx_PeriphCLKConfig+0x846>
 81025f0:	2100      	movs	r1, #0
 81025f2:	f105 0028 	add.w	r0, r5, #40	@ 0x28
 81025f6:	f7ff fb69 	bl	8101ccc <RCCEx_PLL3_Config>
 81025fa:	4606      	mov	r6, r0
 81025fc:	b900      	cbnz	r0, 8102600 <HAL_RCCEx_PeriphCLKConfig+0x848>
 81025fe:	4626      	mov	r6, r4
 8102600:	686b      	ldr	r3, [r5, #4]
 8102602:	06da      	lsls	r2, r3, #27
 8102604:	d506      	bpl.n	8102614 <HAL_RCCEx_PeriphCLKConfig+0x85c>
 8102606:	2101      	movs	r1, #1
 8102608:	f105 0028 	add.w	r0, r5, #40	@ 0x28
 810260c:	f7ff fb5e 	bl	8101ccc <RCCEx_PLL3_Config>
 8102610:	4604      	mov	r4, r0
 8102612:	b900      	cbnz	r0, 8102616 <HAL_RCCEx_PeriphCLKConfig+0x85e>
 8102614:	4634      	mov	r4, r6
 8102616:	686b      	ldr	r3, [r5, #4]
 8102618:	069b      	lsls	r3, r3, #26
 810261a:	f100 80ca 	bmi.w	81027b2 <HAL_RCCEx_PeriphCLKConfig+0x9fa>
 810261e:	1e20      	subs	r0, r4, #0
 8102620:	bf18      	it	ne
 8102622:	2001      	movne	r0, #1
 8102624:	e8bd 83f8 	ldmia.w	sp!, {r3, r4, r5, r6, r7, r8, r9, pc}
 8102628:	2101      	movs	r1, #1
 810262a:	f105 0028 	add.w	r0, r5, #40	@ 0x28
 810262e:	f7ff fb4d 	bl	8101ccc <RCCEx_PLL3_Config>
 8102632:	e6ac      	b.n	810238e <HAL_RCCEx_PeriphCLKConfig+0x5d6>
 8102634:	2601      	movs	r6, #1
 8102636:	4634      	mov	r4, r6
 8102638:	e6b5      	b.n	81023a6 <HAL_RCCEx_PeriphCLKConfig+0x5ee>
 810263a:	4626      	mov	r6, r4
 810263c:	e6b3      	b.n	81023a6 <HAL_RCCEx_PeriphCLKConfig+0x5ee>
 810263e:	bf00      	nop
 8102640:	58024400 	.word	0x58024400
 8102644:	f023 5280 	bic.w	r2, r3, #268435456	@ 0x10000000
 8102648:	f1b2 4f80 	cmp.w	r2, #1073741824	@ 0x40000000
 810264c:	d003      	beq.n	8102656 <HAL_RCCEx_PeriphCLKConfig+0x89e>
 810264e:	f1b3 5f40 	cmp.w	r3, #805306368	@ 0x30000000
 8102652:	f47f aeba 	bne.w	81023ca <HAL_RCCEx_PeriphCLKConfig+0x612>
 8102656:	b9ac      	cbnz	r4, 8102684 <HAL_RCCEx_PeriphCLKConfig+0x8cc>
 8102658:	4a5b      	ldr	r2, [pc, #364]	@ (81027c8 <HAL_RCCEx_PeriphCLKConfig+0xa10>)
 810265a:	f8d5 1094 	ldr.w	r1, [r5, #148]	@ 0x94
 810265e:	6d53      	ldr	r3, [r2, #84]	@ 0x54
 8102660:	f023 43e0 	bic.w	r3, r3, #1879048192	@ 0x70000000
 8102664:	430b      	orrs	r3, r1
 8102666:	6553      	str	r3, [r2, #84]	@ 0x54
 8102668:	e6b1      	b.n	81023ce <HAL_RCCEx_PeriphCLKConfig+0x616>
 810266a:	2100      	movs	r1, #0
 810266c:	f105 0008 	add.w	r0, r5, #8
 8102670:	f7ff fab6 	bl	8101be0 <RCCEx_PLL2_Config>
 8102674:	4604      	mov	r4, r0
 8102676:	e7ee      	b.n	8102656 <HAL_RCCEx_PeriphCLKConfig+0x89e>
 8102678:	2102      	movs	r1, #2
 810267a:	f105 0028 	add.w	r0, r5, #40	@ 0x28
 810267e:	f7ff fb25 	bl	8101ccc <RCCEx_PLL3_Config>
 8102682:	e7f7      	b.n	8102674 <HAL_RCCEx_PeriphCLKConfig+0x8bc>
 8102684:	4626      	mov	r6, r4
 8102686:	e6a2      	b.n	81023ce <HAL_RCCEx_PeriphCLKConfig+0x616>
 8102688:	f423 6280 	bic.w	r2, r3, #1024	@ 0x400
 810268c:	f5b2 5f80 	cmp.w	r2, #4096	@ 0x1000
 8102690:	d003      	beq.n	810269a <HAL_RCCEx_PeriphCLKConfig+0x8e2>
 8102692:	f5b3 6f40 	cmp.w	r3, #3072	@ 0xc00
 8102696:	f47f aeac 	bne.w	81023f2 <HAL_RCCEx_PeriphCLKConfig+0x63a>
 810269a:	b9ac      	cbnz	r4, 81026c8 <HAL_RCCEx_PeriphCLKConfig+0x910>
 810269c:	4a4a      	ldr	r2, [pc, #296]	@ (81027c8 <HAL_RCCEx_PeriphCLKConfig+0xa10>)
 810269e:	f8d5 10a0 	ldr.w	r1, [r5, #160]	@ 0xa0
 81026a2:	6d93      	ldr	r3, [r2, #88]	@ 0x58
 81026a4:	f423 53e0 	bic.w	r3, r3, #7168	@ 0x1c00
 81026a8:	430b      	orrs	r3, r1
 81026aa:	6593      	str	r3, [r2, #88]	@ 0x58
 81026ac:	e6a3      	b.n	81023f6 <HAL_RCCEx_PeriphCLKConfig+0x63e>
 81026ae:	2100      	movs	r1, #0
 81026b0:	f105 0008 	add.w	r0, r5, #8
 81026b4:	f7ff fa94 	bl	8101be0 <RCCEx_PLL2_Config>
 81026b8:	4604      	mov	r4, r0
 81026ba:	e7ee      	b.n	810269a <HAL_RCCEx_PeriphCLKConfig+0x8e2>
 81026bc:	2102      	movs	r1, #2
 81026be:	f105 0028 	add.w	r0, r5, #40	@ 0x28
 81026c2:	f7ff fb03 	bl	8101ccc <RCCEx_PLL3_Config>
 81026c6:	e7f7      	b.n	81026b8 <HAL_RCCEx_PeriphCLKConfig+0x900>
 81026c8:	4626      	mov	r6, r4
 81026ca:	e694      	b.n	81023f6 <HAL_RCCEx_PeriphCLKConfig+0x63e>
 81026cc:	f423 5200 	bic.w	r2, r3, #8192	@ 0x2000
 81026d0:	f5b2 4f00 	cmp.w	r2, #32768	@ 0x8000
 81026d4:	d003      	beq.n	81026de <HAL_RCCEx_PeriphCLKConfig+0x926>
 81026d6:	f5b3 4fc0 	cmp.w	r3, #24576	@ 0x6000
 81026da:	f47f ae9e 	bne.w	810241a <HAL_RCCEx_PeriphCLKConfig+0x662>
 81026de:	b9ac      	cbnz	r4, 810270c <HAL_RCCEx_PeriphCLKConfig+0x954>
 81026e0:	4a39      	ldr	r2, [pc, #228]	@ (81027c8 <HAL_RCCEx_PeriphCLKConfig+0xa10>)
 81026e2:	f8d5 10a4 	ldr.w	r1, [r5, #164]	@ 0xa4
 81026e6:	6d93      	ldr	r3, [r2, #88]	@ 0x58
 81026e8:	f423 4360 	bic.w	r3, r3, #57344	@ 0xe000
 81026ec:	430b      	orrs	r3, r1
 81026ee:	6593      	str	r3, [r2, #88]	@ 0x58
 81026f0:	e695      	b.n	810241e <HAL_RCCEx_PeriphCLKConfig+0x666>
 81026f2:	2100      	movs	r1, #0
 81026f4:	f105 0008 	add.w	r0, r5, #8
 81026f8:	f7ff fa72 	bl	8101be0 <RCCEx_PLL2_Config>
 81026fc:	4604      	mov	r4, r0
 81026fe:	e7ee      	b.n	81026de <HAL_RCCEx_PeriphCLKConfig+0x926>
 8102700:	2102      	movs	r1, #2
 8102702:	f105 0028 	add.w	r0, r5, #40	@ 0x28
 8102706:	f7ff fae1 	bl	8101ccc <RCCEx_PLL3_Config>
 810270a:	e7f7      	b.n	81026fc <HAL_RCCEx_PeriphCLKConfig+0x944>
 810270c:	4626      	mov	r6, r4
 810270e:	e686      	b.n	810241e <HAL_RCCEx_PeriphCLKConfig+0x666>
 8102710:	2102      	movs	r1, #2
 8102712:	f105 0028 	add.w	r0, r5, #40	@ 0x28
 8102716:	f7ff fad9 	bl	8101ccc <RCCEx_PLL3_Config>
 810271a:	e6c3      	b.n	81024a4 <HAL_RCCEx_PeriphCLKConfig+0x6ec>
 810271c:	2601      	movs	r6, #1
 810271e:	4634      	mov	r4, r6
 8102720:	e6cc      	b.n	81024bc <HAL_RCCEx_PeriphCLKConfig+0x704>
 8102722:	4626      	mov	r6, r4
 8102724:	e6ca      	b.n	81024bc <HAL_RCCEx_PeriphCLKConfig+0x704>
 8102726:	4a28      	ldr	r2, [pc, #160]	@ (81027c8 <HAL_RCCEx_PeriphCLKConfig+0xa10>)
 8102728:	6ad3      	ldr	r3, [r2, #44]	@ 0x2c
 810272a:	f443 3300 	orr.w	r3, r3, #131072	@ 0x20000
 810272e:	62d3      	str	r3, [r2, #44]	@ 0x2c
 8102730:	b97c      	cbnz	r4, 8102752 <HAL_RCCEx_PeriphCLKConfig+0x99a>
 8102732:	4a25      	ldr	r2, [pc, #148]	@ (81027c8 <HAL_RCCEx_PeriphCLKConfig+0xa10>)
 8102734:	f8d5 108c 	ldr.w	r1, [r5, #140]	@ 0x8c
 8102738:	6d53      	ldr	r3, [r2, #84]	@ 0x54
 810273a:	f423 1340 	bic.w	r3, r3, #3145728	@ 0x300000
 810273e:	430b      	orrs	r3, r1
 8102740:	6553      	str	r3, [r2, #84]	@ 0x54
 8102742:	e6ce      	b.n	81024e2 <HAL_RCCEx_PeriphCLKConfig+0x72a>
 8102744:	2101      	movs	r1, #1
 8102746:	f105 0028 	add.w	r0, r5, #40	@ 0x28
 810274a:	f7ff fabf 	bl	8101ccc <RCCEx_PLL3_Config>
 810274e:	4604      	mov	r4, r0
 8102750:	e7ee      	b.n	8102730 <HAL_RCCEx_PeriphCLKConfig+0x978>
 8102752:	4626      	mov	r6, r4
 8102754:	e6c5      	b.n	81024e2 <HAL_RCCEx_PeriphCLKConfig+0x72a>
 8102756:	4a1c      	ldr	r2, [pc, #112]	@ (81027c8 <HAL_RCCEx_PeriphCLKConfig+0xa10>)
 8102758:	6ad3      	ldr	r3, [r2, #44]	@ 0x2c
 810275a:	f443 3300 	orr.w	r3, r3, #131072	@ 0x20000
 810275e:	62d3      	str	r3, [r2, #44]	@ 0x2c
 8102760:	b974      	cbnz	r4, 8102780 <HAL_RCCEx_PeriphCLKConfig+0x9c8>
 8102762:	4a19      	ldr	r2, [pc, #100]	@ (81027c8 <HAL_RCCEx_PeriphCLKConfig+0xa10>)
 8102764:	6d69      	ldr	r1, [r5, #84]	@ 0x54
 8102766:	6cd3      	ldr	r3, [r2, #76]	@ 0x4c
 8102768:	f423 3380 	bic.w	r3, r3, #65536	@ 0x10000
 810276c:	430b      	orrs	r3, r1
 810276e:	64d3      	str	r3, [r2, #76]	@ 0x4c
 8102770:	e6c4      	b.n	81024fc <HAL_RCCEx_PeriphCLKConfig+0x744>
 8102772:	2102      	movs	r1, #2
 8102774:	f105 0008 	add.w	r0, r5, #8
 8102778:	f7ff fa32 	bl	8101be0 <RCCEx_PLL2_Config>
 810277c:	4604      	mov	r4, r0
 810277e:	e7ef      	b.n	8102760 <HAL_RCCEx_PeriphCLKConfig+0x9a8>
 8102780:	4626      	mov	r6, r4
 8102782:	e6bb      	b.n	81024fc <HAL_RCCEx_PeriphCLKConfig+0x744>
 8102784:	f420 7280 	bic.w	r2, r0, #256	@ 0x100
 8102788:	f5b2 7f00 	cmp.w	r2, #512	@ 0x200
 810278c:	f47f aed1 	bne.w	8102532 <HAL_RCCEx_PeriphCLKConfig+0x77a>
 8102790:	2c00      	cmp	r4, #0
 8102792:	f47f aecf 	bne.w	8102534 <HAL_RCCEx_PeriphCLKConfig+0x77c>
 8102796:	4c0c      	ldr	r4, [pc, #48]	@ (81027c8 <HAL_RCCEx_PeriphCLKConfig+0xa10>)
 8102798:	6d62      	ldr	r2, [r4, #84]	@ 0x54
 810279a:	f422 7240 	bic.w	r2, r2, #768	@ 0x300
 810279e:	4302      	orrs	r2, r0
 81027a0:	6562      	str	r2, [r4, #84]	@ 0x54
 81027a2:	4634      	mov	r4, r6
 81027a4:	e6c6      	b.n	8102534 <HAL_RCCEx_PeriphCLKConfig+0x77c>
 81027a6:	4f08      	ldr	r7, [pc, #32]	@ (81027c8 <HAL_RCCEx_PeriphCLKConfig+0xa10>)
 81027a8:	6afa      	ldr	r2, [r7, #44]	@ 0x2c
 81027aa:	f442 3200 	orr.w	r2, r2, #131072	@ 0x20000
 81027ae:	62fa      	str	r2, [r7, #44]	@ 0x2c
 81027b0:	e7ee      	b.n	8102790 <HAL_RCCEx_PeriphCLKConfig+0x9d8>
 81027b2:	2102      	movs	r1, #2
 81027b4:	f105 0028 	add.w	r0, r5, #40	@ 0x28
 81027b8:	f7ff fa88 	bl	8101ccc <RCCEx_PLL3_Config>
 81027bc:	2800      	cmp	r0, #0
 81027be:	f43f af2e 	beq.w	810261e <HAL_RCCEx_PeriphCLKConfig+0x866>
 81027c2:	2001      	movs	r0, #1
 81027c4:	e72e      	b.n	8102624 <HAL_RCCEx_PeriphCLKConfig+0x86c>
 81027c6:	bf00      	nop
 81027c8:	58024400 	.word	0x58024400

081027cc <HAL_RCCEx_GetD3PCLK1Freq>:
 81027cc:	b508      	push	{r3, lr}
 81027ce:	f7ff f9ab 	bl	8101b28 <HAL_RCC_GetHCLKFreq>
 81027d2:	4b05      	ldr	r3, [pc, #20]	@ (81027e8 <HAL_RCCEx_GetD3PCLK1Freq+0x1c>)
 81027d4:	4a05      	ldr	r2, [pc, #20]	@ (81027ec <HAL_RCCEx_GetD3PCLK1Freq+0x20>)
 81027d6:	6a1b      	ldr	r3, [r3, #32]
 81027d8:	f3c3 1302 	ubfx	r3, r3, #4, #3
 81027dc:	5cd3      	ldrb	r3, [r2, r3]
 81027de:	f003 031f 	and.w	r3, r3, #31
 81027e2:	40d8      	lsrs	r0, r3
 81027e4:	bd08      	pop	{r3, pc}
 81027e6:	bf00      	nop
 81027e8:	58024400 	.word	0x58024400
 81027ec:	08104f84 	.word	0x08104f84

081027f0 <HAL_RCCEx_GetPLL2ClockFreq>:
 81027f0:	494f      	ldr	r1, [pc, #316]	@ (8102930 <HAL_RCCEx_GetPLL2ClockFreq+0x140>)
 81027f2:	b570      	push	{r4, r5, r6, lr}
 81027f4:	6a8c      	ldr	r4, [r1, #40]	@ 0x28
 81027f6:	6a8e      	ldr	r6, [r1, #40]	@ 0x28
 81027f8:	6acd      	ldr	r5, [r1, #44]	@ 0x2c
 81027fa:	6bca      	ldr	r2, [r1, #60]	@ 0x3c
 81027fc:	f416 3f7c 	tst.w	r6, #258048	@ 0x3f000
 8102800:	f3c6 3305 	ubfx	r3, r6, #12, #6
 8102804:	f000 8090 	beq.w	8102928 <HAL_RCCEx_GetPLL2ClockFreq+0x138>
 8102808:	ee07 3a90 	vmov	s15, r3
 810280c:	f3c2 03cc 	ubfx	r3, r2, #3, #13
 8102810:	f3c5 1200 	ubfx	r2, r5, #4, #1
 8102814:	4353      	muls	r3, r2
 8102816:	ee06 3a90 	vmov	s13, r3
 810281a:	f004 0403 	and.w	r4, r4, #3
 810281e:	2c01      	cmp	r4, #1
 8102820:	eeb8 7ae7 	vcvt.f32.s32	s14, s15
 8102824:	eefa 6ae9 	vcvt.f32.s32	s13, s13, #13
 8102828:	eeb7 6a00 	vmov.f32	s12, #112	@ 0x3f800000  1.0
 810282c:	d06e      	beq.n	810290c <HAL_RCCEx_GetPLL2ClockFreq+0x11c>
 810282e:	2c02      	cmp	r4, #2
 8102830:	d05e      	beq.n	81028f0 <HAL_RCCEx_GetPLL2ClockFreq+0x100>
 8102832:	2c00      	cmp	r4, #0
 8102834:	d16a      	bne.n	810290c <HAL_RCCEx_GetPLL2ClockFreq+0x11c>
 8102836:	680b      	ldr	r3, [r1, #0]
 8102838:	069b      	lsls	r3, r3, #26
 810283a:	d547      	bpl.n	81028cc <HAL_RCCEx_GetPLL2ClockFreq+0xdc>
 810283c:	680a      	ldr	r2, [r1, #0]
 810283e:	6b8b      	ldr	r3, [r1, #56]	@ 0x38
 8102840:	f3c2 01c1 	ubfx	r1, r2, #3, #2
 8102844:	4a3b      	ldr	r2, [pc, #236]	@ (8102934 <HAL_RCCEx_GetPLL2ClockFreq+0x144>)
 8102846:	40ca      	lsrs	r2, r1
 8102848:	ee07 2a90 	vmov	s15, r2
 810284c:	eef8 5ae7 	vcvt.f32.s32	s11, s15
 8102850:	f3c3 0308 	ubfx	r3, r3, #0, #9
 8102854:	eec5 7a87 	vdiv.f32	s15, s11, s14
 8102858:	ee07 3a10 	vmov	s14, r3
 810285c:	eeb8 7ac7 	vcvt.f32.s32	s14, s14
 8102860:	ee37 7a26 	vadd.f32	s14, s14, s13
 8102864:	ee37 7a06 	vadd.f32	s14, s14, s12
 8102868:	ee67 7a87 	vmul.f32	s15, s15, s14
 810286c:	4a30      	ldr	r2, [pc, #192]	@ (8102930 <HAL_RCCEx_GetPLL2ClockFreq+0x140>)
 810286e:	6b93      	ldr	r3, [r2, #56]	@ 0x38
 8102870:	f3c3 2346 	ubfx	r3, r3, #9, #7
 8102874:	ee07 3a10 	vmov	s14, r3
 8102878:	eeb8 7ac7 	vcvt.f32.s32	s14, s14
 810287c:	ee37 7a06 	vadd.f32	s14, s14, s12
 8102880:	eec7 6a87 	vdiv.f32	s13, s15, s14
 8102884:	eefc 6ae6 	vcvt.u32.f32	s13, s13
 8102888:	edc0 6a00 	vstr	s13, [r0]
 810288c:	6b93      	ldr	r3, [r2, #56]	@ 0x38
 810288e:	f3c3 4306 	ubfx	r3, r3, #16, #7
 8102892:	ee07 3a10 	vmov	s14, r3
 8102896:	eeb8 7ac7 	vcvt.f32.s32	s14, s14
 810289a:	ee37 7a06 	vadd.f32	s14, s14, s12
 810289e:	eec7 6a87 	vdiv.f32	s13, s15, s14
 81028a2:	eefc 6ae6 	vcvt.u32.f32	s13, s13
 81028a6:	edc0 6a01 	vstr	s13, [r0, #4]
 81028aa:	6b93      	ldr	r3, [r2, #56]	@ 0x38
 81028ac:	f3c3 6306 	ubfx	r3, r3, #24, #7
 81028b0:	ee06 3a90 	vmov	s13, r3
 81028b4:	eef8 6ae6 	vcvt.f32.s32	s13, s13
 81028b8:	ee76 6a86 	vadd.f32	s13, s13, s12
 81028bc:	ee87 7aa6 	vdiv.f32	s14, s15, s13
 81028c0:	eefc 7ac7 	vcvt.u32.f32	s15, s14
 81028c4:	ee17 3a90 	vmov	r3, s15
 81028c8:	6083      	str	r3, [r0, #8]
 81028ca:	bd70      	pop	{r4, r5, r6, pc}
 81028cc:	6b8b      	ldr	r3, [r1, #56]	@ 0x38
 81028ce:	eddf 5a1a 	vldr	s11, [pc, #104]	@ 8102938 <HAL_RCCEx_GetPLL2ClockFreq+0x148>
 81028d2:	f3c3 0308 	ubfx	r3, r3, #0, #9
 81028d6:	ee07 3a90 	vmov	s15, r3
 81028da:	eef8 7ae7 	vcvt.f32.s32	s15, s15
 81028de:	ee77 7aa6 	vadd.f32	s15, s15, s13
 81028e2:	ee77 7a86 	vadd.f32	s15, s15, s12
 81028e6:	eec5 6a87 	vdiv.f32	s13, s11, s14
 81028ea:	ee67 7aa6 	vmul.f32	s15, s15, s13
 81028ee:	e7bd      	b.n	810286c <HAL_RCCEx_GetPLL2ClockFreq+0x7c>
 81028f0:	6b8b      	ldr	r3, [r1, #56]	@ 0x38
 81028f2:	eddf 5a12 	vldr	s11, [pc, #72]	@ 810293c <HAL_RCCEx_GetPLL2ClockFreq+0x14c>
 81028f6:	f3c3 0308 	ubfx	r3, r3, #0, #9
 81028fa:	ee07 3a90 	vmov	s15, r3
 81028fe:	eef8 7ae7 	vcvt.f32.s32	s15, s15
 8102902:	ee77 7aa6 	vadd.f32	s15, s15, s13
 8102906:	ee77 7a86 	vadd.f32	s15, s15, s12
 810290a:	e7ec      	b.n	81028e6 <HAL_RCCEx_GetPLL2ClockFreq+0xf6>
 810290c:	6b8b      	ldr	r3, [r1, #56]	@ 0x38
 810290e:	eddf 5a0c 	vldr	s11, [pc, #48]	@ 8102940 <HAL_RCCEx_GetPLL2ClockFreq+0x150>
 8102912:	f3c3 0308 	ubfx	r3, r3, #0, #9
 8102916:	ee07 3a90 	vmov	s15, r3
 810291a:	eef8 7ae7 	vcvt.f32.s32	s15, s15
 810291e:	ee77 7aa6 	vadd.f32	s15, s15, s13
 8102922:	ee77 7a86 	vadd.f32	s15, s15, s12
 8102926:	e7de      	b.n	81028e6 <HAL_RCCEx_GetPLL2ClockFreq+0xf6>
 8102928:	e9c0 3300 	strd	r3, r3, [r0]
 810292c:	e7cc      	b.n	81028c8 <HAL_RCCEx_GetPLL2ClockFreq+0xd8>
 810292e:	bf00      	nop
 8102930:	58024400 	.word	0x58024400
 8102934:	03d09000 	.word	0x03d09000
 8102938:	4c742400 	.word	0x4c742400
 810293c:	4bbebc20 	.word	0x4bbebc20
 8102940:	4a742400 	.word	0x4a742400

08102944 <HAL_RCCEx_GetPLL3ClockFreq>:
 8102944:	494f      	ldr	r1, [pc, #316]	@ (8102a84 <HAL_RCCEx_GetPLL3ClockFreq+0x140>)
 8102946:	b570      	push	{r4, r5, r6, lr}
 8102948:	6a8c      	ldr	r4, [r1, #40]	@ 0x28
 810294a:	6a8e      	ldr	r6, [r1, #40]	@ 0x28
 810294c:	6acd      	ldr	r5, [r1, #44]	@ 0x2c
 810294e:	6c4a      	ldr	r2, [r1, #68]	@ 0x44
 8102950:	f016 7f7c 	tst.w	r6, #66060288	@ 0x3f00000
 8102954:	f3c6 5305 	ubfx	r3, r6, #20, #6
 8102958:	f000 8090 	beq.w	8102a7c <HAL_RCCEx_GetPLL3ClockFreq+0x138>
 810295c:	ee07 3a90 	vmov	s15, r3
 8102960:	f3c2 03cc 	ubfx	r3, r2, #3, #13
 8102964:	f3c5 2200 	ubfx	r2, r5, #8, #1
 8102968:	4353      	muls	r3, r2
 810296a:	ee06 3a90 	vmov	s13, r3
 810296e:	f004 0403 	and.w	r4, r4, #3
 8102972:	2c01      	cmp	r4, #1
 8102974:	eeb8 7ae7 	vcvt.f32.s32	s14, s15
 8102978:	eefa 6ae9 	vcvt.f32.s32	s13, s13, #13
 810297c:	eeb7 6a00 	vmov.f32	s12, #112	@ 0x3f800000  1.0
 8102980:	d06e      	beq.n	8102a60 <HAL_RCCEx_GetPLL3ClockFreq+0x11c>
 8102982:	2c02      	cmp	r4, #2
 8102984:	d05e      	beq.n	8102a44 <HAL_RCCEx_GetPLL3ClockFreq+0x100>
 8102986:	2c00      	cmp	r4, #0
 8102988:	d16a      	bne.n	8102a60 <HAL_RCCEx_GetPLL3ClockFreq+0x11c>
 810298a:	680b      	ldr	r3, [r1, #0]
 810298c:	069b      	lsls	r3, r3, #26
 810298e:	d547      	bpl.n	8102a20 <HAL_RCCEx_GetPLL3ClockFreq+0xdc>
 8102990:	680a      	ldr	r2, [r1, #0]
 8102992:	6c0b      	ldr	r3, [r1, #64]	@ 0x40
 8102994:	f3c2 01c1 	ubfx	r1, r2, #3, #2
 8102998:	4a3b      	ldr	r2, [pc, #236]	@ (8102a88 <HAL_RCCEx_GetPLL3ClockFreq+0x144>)
 810299a:	40ca      	lsrs	r2, r1
 810299c:	ee07 2a90 	vmov	s15, r2
 81029a0:	eef8 5ae7 	vcvt.f32.s32	s11, s15
 81029a4:	f3c3 0308 	ubfx	r3, r3, #0, #9
 81029a8:	eec5 7a87 	vdiv.f32	s15, s11, s14
 81029ac:	ee07 3a10 	vmov	s14, r3
 81029b0:	eeb8 7ac7 	vcvt.f32.s32	s14, s14
 81029b4:	ee37 7a26 	vadd.f32	s14, s14, s13
 81029b8:	ee37 7a06 	vadd.f32	s14, s14, s12
 81029bc:	ee67 7a87 	vmul.f32	s15, s15, s14
 81029c0:	4a30      	ldr	r2, [pc, #192]	@ (8102a84 <HAL_RCCEx_GetPLL3ClockFreq+0x140>)
 81029c2:	6c13      	ldr	r3, [r2, #64]	@ 0x40
 81029c4:	f3c3 2346 	ubfx	r3, r3, #9, #7
 81029c8:	ee07 3a10 	vmov	s14, r3
 81029cc:	eeb8 7ac7 	vcvt.f32.s32	s14, s14
 81029d0:	ee37 7a06 	vadd.f32	s14, s14, s12
 81029d4:	eec7 6a87 	vdiv.f32	s13, s15, s14
 81029d8:	eefc 6ae6 	vcvt.u32.f32	s13, s13
 81029dc:	edc0 6a00 	vstr	s13, [r0]
 81029e0:	6c13      	ldr	r3, [r2, #64]	@ 0x40
 81029e2:	f3c3 4306 	ubfx	r3, r3, #16, #7
 81029e6:	ee07 3a10 	vmov	s14, r3
 81029ea:	eeb8 7ac7 	vcvt.f32.s32	s14, s14
 81029ee:	ee37 7a06 	vadd.f32	s14, s14, s12
 81029f2:	eec7 6a87 	vdiv.f32	s13, s15, s14
 81029f6:	eefc 6ae6 	vcvt.u32.f32	s13, s13
 81029fa:	edc0 6a01 	vstr	s13, [r0, #4]
 81029fe:	6c13      	ldr	r3, [r2, #64]	@ 0x40
 8102a00:	f3c3 6306 	ubfx	r3, r3, #24, #7
 8102a04:	ee06 3a90 	vmov	s13, r3
 8102a08:	eef8 6ae6 	vcvt.f32.s32	s13, s13
 8102a0c:	ee76 6a86 	vadd.f32	s13, s13, s12
 8102a10:	ee87 7aa6 	vdiv.f32	s14, s15, s13
 8102a14:	eefc 7ac7 	vcvt.u32.f32	s15, s14
 8102a18:	ee17 3a90 	vmov	r3, s15
 8102a1c:	6083      	str	r3, [r0, #8]
 8102a1e:	bd70      	pop	{r4, r5, r6, pc}
 8102a20:	6c0b      	ldr	r3, [r1, #64]	@ 0x40
 8102a22:	eddf 5a1a 	vldr	s11, [pc, #104]	@ 8102a8c <HAL_RCCEx_GetPLL3ClockFreq+0x148>
 8102a26:	f3c3 0308 	ubfx	r3, r3, #0, #9
 8102a2a:	ee07 3a90 	vmov	s15, r3
 8102a2e:	eef8 7ae7 	vcvt.f32.s32	s15, s15
 8102a32:	ee77 7aa6 	vadd.f32	s15, s15, s13
 8102a36:	ee77 7a86 	vadd.f32	s15, s15, s12
 8102a3a:	eec5 6a87 	vdiv.f32	s13, s11, s14
 8102a3e:	ee67 7aa6 	vmul.f32	s15, s15, s13
 8102a42:	e7bd      	b.n	81029c0 <HAL_RCCEx_GetPLL3ClockFreq+0x7c>
 8102a44:	6c0b      	ldr	r3, [r1, #64]	@ 0x40
 8102a46:	eddf 5a12 	vldr	s11, [pc, #72]	@ 8102a90 <HAL_RCCEx_GetPLL3ClockFreq+0x14c>
 8102a4a:	f3c3 0308 	ubfx	r3, r3, #0, #9
 8102a4e:	ee07 3a90 	vmov	s15, r3
 8102a52:	eef8 7ae7 	vcvt.f32.s32	s15, s15
 8102a56:	ee77 7aa6 	vadd.f32	s15, s15, s13
 8102a5a:	ee77 7a86 	vadd.f32	s15, s15, s12
 8102a5e:	e7ec      	b.n	8102a3a <HAL_RCCEx_GetPLL3ClockFreq+0xf6>
 8102a60:	6c0b      	ldr	r3, [r1, #64]	@ 0x40
 8102a62:	eddf 5a0c 	vldr	s11, [pc, #48]	@ 8102a94 <HAL_RCCEx_GetPLL3ClockFreq+0x150>
 8102a66:	f3c3 0308 	ubfx	r3, r3, #0, #9
 8102a6a:	ee07 3a90 	vmov	s15, r3
 8102a6e:	eef8 7ae7 	vcvt.f32.s32	s15, s15
 8102a72:	ee77 7aa6 	vadd.f32	s15, s15, s13
 8102a76:	ee77 7a86 	vadd.f32	s15, s15, s12
 8102a7a:	e7de      	b.n	8102a3a <HAL_RCCEx_GetPLL3ClockFreq+0xf6>
 8102a7c:	e9c0 3300 	strd	r3, r3, [r0]
 8102a80:	e7cc      	b.n	8102a1c <HAL_RCCEx_GetPLL3ClockFreq+0xd8>
 8102a82:	bf00      	nop
 8102a84:	58024400 	.word	0x58024400
 8102a88:	03d09000 	.word	0x03d09000
 8102a8c:	4c742400 	.word	0x4c742400
 8102a90:	4bbebc20 	.word	0x4bbebc20
 8102a94:	4a742400 	.word	0x4a742400

08102a98 <HAL_RCCEx_GetPLL1ClockFreq>:
 8102a98:	494f      	ldr	r1, [pc, #316]	@ (8102bd8 <HAL_RCCEx_GetPLL1ClockFreq+0x140>)
 8102a9a:	b570      	push	{r4, r5, r6, lr}
 8102a9c:	6a8c      	ldr	r4, [r1, #40]	@ 0x28
 8102a9e:	6a8e      	ldr	r6, [r1, #40]	@ 0x28
 8102aa0:	6acd      	ldr	r5, [r1, #44]	@ 0x2c
 8102aa2:	6b4a      	ldr	r2, [r1, #52]	@ 0x34
 8102aa4:	f416 7f7c 	tst.w	r6, #1008	@ 0x3f0
 8102aa8:	f3c6 1305 	ubfx	r3, r6, #4, #6
 8102aac:	f000 8090 	beq.w	8102bd0 <HAL_RCCEx_GetPLL1ClockFreq+0x138>
 8102ab0:	ee07 3a90 	vmov	s15, r3
 8102ab4:	f3c2 03cc 	ubfx	r3, r2, #3, #13
 8102ab8:	f005 0201 	and.w	r2, r5, #1
 8102abc:	4353      	muls	r3, r2
 8102abe:	ee06 3a90 	vmov	s13, r3
 8102ac2:	f004 0403 	and.w	r4, r4, #3
 8102ac6:	2c01      	cmp	r4, #1
 8102ac8:	eeb8 7ae7 	vcvt.f32.s32	s14, s15
 8102acc:	eefa 6ae9 	vcvt.f32.s32	s13, s13, #13
 8102ad0:	eeb7 6a00 	vmov.f32	s12, #112	@ 0x3f800000  1.0
 8102ad4:	d04e      	beq.n	8102b74 <HAL_RCCEx_GetPLL1ClockFreq+0xdc>
 8102ad6:	2c02      	cmp	r4, #2
 8102ad8:	d05e      	beq.n	8102b98 <HAL_RCCEx_GetPLL1ClockFreq+0x100>
 8102ada:	2c00      	cmp	r4, #0
 8102adc:	d16a      	bne.n	8102bb4 <HAL_RCCEx_GetPLL1ClockFreq+0x11c>
 8102ade:	680b      	ldr	r3, [r1, #0]
 8102ae0:	069b      	lsls	r3, r3, #26
 8102ae2:	d567      	bpl.n	8102bb4 <HAL_RCCEx_GetPLL1ClockFreq+0x11c>
 8102ae4:	680a      	ldr	r2, [r1, #0]
 8102ae6:	6b0b      	ldr	r3, [r1, #48]	@ 0x30
 8102ae8:	f3c2 01c1 	ubfx	r1, r2, #3, #2
 8102aec:	4a3b      	ldr	r2, [pc, #236]	@ (8102bdc <HAL_RCCEx_GetPLL1ClockFreq+0x144>)
 8102aee:	40ca      	lsrs	r2, r1
 8102af0:	ee07 2a90 	vmov	s15, r2
 8102af4:	eef8 5ae7 	vcvt.f32.s32	s11, s15
 8102af8:	f3c3 0308 	ubfx	r3, r3, #0, #9
 8102afc:	eec5 7a87 	vdiv.f32	s15, s11, s14
 8102b00:	ee07 3a10 	vmov	s14, r3
 8102b04:	eeb8 7ac7 	vcvt.f32.s32	s14, s14
 8102b08:	ee37 7a26 	vadd.f32	s14, s14, s13
 8102b0c:	ee37 7a06 	vadd.f32	s14, s14, s12
 8102b10:	ee67 7a87 	vmul.f32	s15, s15, s14
 8102b14:	4a30      	ldr	r2, [pc, #192]	@ (8102bd8 <HAL_RCCEx_GetPLL1ClockFreq+0x140>)
 8102b16:	6b13      	ldr	r3, [r2, #48]	@ 0x30
 8102b18:	f3c3 2346 	ubfx	r3, r3, #9, #7
 8102b1c:	ee07 3a10 	vmov	s14, r3
 8102b20:	eeb8 7ac7 	vcvt.f32.s32	s14, s14
 8102b24:	ee37 7a06 	vadd.f32	s14, s14, s12
 8102b28:	eec7 6a87 	vdiv.f32	s13, s15, s14
 8102b2c:	eefc 6ae6 	vcvt.u32.f32	s13, s13
 8102b30:	edc0 6a00 	vstr	s13, [r0]
 8102b34:	6b13      	ldr	r3, [r2, #48]	@ 0x30
 8102b36:	f3c3 4306 	ubfx	r3, r3, #16, #7
 8102b3a:	ee07 3a10 	vmov	s14, r3
 8102b3e:	eeb8 7ac7 	vcvt.f32.s32	s14, s14
 8102b42:	ee37 7a06 	vadd.f32	s14, s14, s12
 8102b46:	eec7 6a87 	vdiv.f32	s13, s15, s14
 8102b4a:	eefc 6ae6 	vcvt.u32.f32	s13, s13
 8102b4e:	edc0 6a01 	vstr	s13, [r0, #4]
 8102b52:	6b13      	ldr	r3, [r2, #48]	@ 0x30
 8102b54:	f3c3 6306 	ubfx	r3, r3, #24, #7
 8102b58:	ee06 3a90 	vmov	s13, r3
 8102b5c:	eef8 6ae6 	vcvt.f32.s32	s13, s13
 8102b60:	ee76 6a86 	vadd.f32	s13, s13, s12
 8102b64:	ee87 7aa6 	vdiv.f32	s14, s15, s13
 8102b68:	eefc 7ac7 	vcvt.u32.f32	s15, s14
 8102b6c:	ee17 3a90 	vmov	r3, s15
 8102b70:	6083      	str	r3, [r0, #8]
 8102b72:	bd70      	pop	{r4, r5, r6, pc}
 8102b74:	6b0b      	ldr	r3, [r1, #48]	@ 0x30
 8102b76:	eddf 5a1a 	vldr	s11, [pc, #104]	@ 8102be0 <HAL_RCCEx_GetPLL1ClockFreq+0x148>
 8102b7a:	f3c3 0308 	ubfx	r3, r3, #0, #9
 8102b7e:	ee07 3a90 	vmov	s15, r3
 8102b82:	eef8 7ae7 	vcvt.f32.s32	s15, s15
 8102b86:	ee77 7aa6 	vadd.f32	s15, s15, s13
 8102b8a:	ee77 7a86 	vadd.f32	s15, s15, s12
 8102b8e:	eec5 6a87 	vdiv.f32	s13, s11, s14
 8102b92:	ee67 7aa6 	vmul.f32	s15, s15, s13
 8102b96:	e7bd      	b.n	8102b14 <HAL_RCCEx_GetPLL1ClockFreq+0x7c>
 8102b98:	6b0b      	ldr	r3, [r1, #48]	@ 0x30
 8102b9a:	eddf 5a12 	vldr	s11, [pc, #72]	@ 8102be4 <HAL_RCCEx_GetPLL1ClockFreq+0x14c>
 8102b9e:	f3c3 0308 	ubfx	r3, r3, #0, #9
 8102ba2:	ee07 3a90 	vmov	s15, r3
 8102ba6:	eef8 7ae7 	vcvt.f32.s32	s15, s15
 8102baa:	ee77 7aa6 	vadd.f32	s15, s15, s13
 8102bae:	ee77 7a86 	vadd.f32	s15, s15, s12
 8102bb2:	e7ec      	b.n	8102b8e <HAL_RCCEx_GetPLL1ClockFreq+0xf6>
 8102bb4:	6b0b      	ldr	r3, [r1, #48]	@ 0x30
 8102bb6:	eddf 5a0c 	vldr	s11, [pc, #48]	@ 8102be8 <HAL_RCCEx_GetPLL1ClockFreq+0x150>
 8102bba:	f3c3 0308 	ubfx	r3, r3, #0, #9
 8102bbe:	ee07 3a90 	vmov	s15, r3
 8102bc2:	eef8 7ae7 	vcvt.f32.s32	s15, s15
 8102bc6:	ee77 7aa6 	vadd.f32	s15, s15, s13
 8102bca:	ee77 7a86 	vadd.f32	s15, s15, s12
 8102bce:	e7de      	b.n	8102b8e <HAL_RCCEx_GetPLL1ClockFreq+0xf6>
 8102bd0:	e9c0 3300 	strd	r3, r3, [r0]
 8102bd4:	e7cc      	b.n	8102b70 <HAL_RCCEx_GetPLL1ClockFreq+0xd8>
 8102bd6:	bf00      	nop
 8102bd8:	58024400 	.word	0x58024400
 8102bdc:	03d09000 	.word	0x03d09000
 8102be0:	4a742400 	.word	0x4a742400
 8102be4:	4bbebc20 	.word	0x4bbebc20
 8102be8:	4c742400 	.word	0x4c742400

08102bec <HAL_RCCEx_GetPeriphCLKFreq>:
 8102bec:	b51f      	push	{r0, r1, r2, r3, r4, lr}
 8102bee:	f5a0 7380 	sub.w	r3, r0, #256	@ 0x100
 8102bf2:	430b      	orrs	r3, r1
 8102bf4:	d115      	bne.n	8102c22 <HAL_RCCEx_GetPeriphCLKFreq+0x36>
 8102bf6:	4b9d      	ldr	r3, [pc, #628]	@ (8102e6c <HAL_RCCEx_GetPeriphCLKFreq+0x280>)
 8102bf8:	6d1a      	ldr	r2, [r3, #80]	@ 0x50
 8102bfa:	f002 0207 	and.w	r2, r2, #7
 8102bfe:	2a04      	cmp	r2, #4
 8102c00:	d82d      	bhi.n	8102c5e <HAL_RCCEx_GetPeriphCLKFreq+0x72>
 8102c02:	e8df f012 	tbh	[pc, r2, lsl #1]
 8102c06:	001c      	.short	0x001c
 8102c08:	000500e1 	.word	0x000500e1
 8102c0c:	00410151 	.word	0x00410151
 8102c10:	6818      	ldr	r0, [r3, #0]
 8102c12:	f010 5000 	ands.w	r0, r0, #536870912	@ 0x20000000
 8102c16:	f000 80df 	beq.w	8102dd8 <HAL_RCCEx_GetPeriphCLKFreq+0x1ec>
 8102c1a:	a801      	add	r0, sp, #4
 8102c1c:	f7ff fe92 	bl	8102944 <HAL_RCCEx_GetPLL3ClockFreq>
 8102c20:	e0d9      	b.n	8102dd6 <HAL_RCCEx_GetPeriphCLKFreq+0x1ea>
 8102c22:	f5a0 7300 	sub.w	r3, r0, #512	@ 0x200
 8102c26:	430b      	orrs	r3, r1
 8102c28:	d11b      	bne.n	8102c62 <HAL_RCCEx_GetPeriphCLKFreq+0x76>
 8102c2a:	4b90      	ldr	r3, [pc, #576]	@ (8102e6c <HAL_RCCEx_GetPeriphCLKFreq+0x280>)
 8102c2c:	6d1a      	ldr	r2, [r3, #80]	@ 0x50
 8102c2e:	f402 72e0 	and.w	r2, r2, #448	@ 0x1c0
 8102c32:	2a80      	cmp	r2, #128	@ 0x80
 8102c34:	d0ec      	beq.n	8102c10 <HAL_RCCEx_GetPeriphCLKFreq+0x24>
 8102c36:	d80c      	bhi.n	8102c52 <HAL_RCCEx_GetPeriphCLKFreq+0x66>
 8102c38:	2a00      	cmp	r2, #0
 8102c3a:	f040 80c5 	bne.w	8102dc8 <HAL_RCCEx_GetPeriphCLKFreq+0x1dc>
 8102c3e:	6818      	ldr	r0, [r3, #0]
 8102c40:	f010 7000 	ands.w	r0, r0, #33554432	@ 0x2000000
 8102c44:	f000 80c8 	beq.w	8102dd8 <HAL_RCCEx_GetPeriphCLKFreq+0x1ec>
 8102c48:	a801      	add	r0, sp, #4
 8102c4a:	f7ff ff25 	bl	8102a98 <HAL_RCCEx_GetPLL1ClockFreq>
 8102c4e:	9802      	ldr	r0, [sp, #8]
 8102c50:	e0c2      	b.n	8102dd8 <HAL_RCCEx_GetPeriphCLKFreq+0x1ec>
 8102c52:	2ac0      	cmp	r2, #192	@ 0xc0
 8102c54:	f000 8128 	beq.w	8102ea8 <HAL_RCCEx_GetPeriphCLKFreq+0x2bc>
 8102c58:	f5b2 7f80 	cmp.w	r2, #256	@ 0x100
 8102c5c:	d014      	beq.n	8102c88 <HAL_RCCEx_GetPeriphCLKFreq+0x9c>
 8102c5e:	2000      	movs	r0, #0
 8102c60:	e0ba      	b.n	8102dd8 <HAL_RCCEx_GetPeriphCLKFreq+0x1ec>
 8102c62:	f5a0 6380 	sub.w	r3, r0, #1024	@ 0x400
 8102c66:	430b      	orrs	r3, r1
 8102c68:	d12e      	bne.n	8102cc8 <HAL_RCCEx_GetPeriphCLKFreq+0xdc>
 8102c6a:	4b80      	ldr	r3, [pc, #512]	@ (8102e6c <HAL_RCCEx_GetPeriphCLKFreq+0x280>)
 8102c6c:	6d9a      	ldr	r2, [r3, #88]	@ 0x58
 8102c6e:	f402 0260 	and.w	r2, r2, #14680064	@ 0xe00000
 8102c72:	f5b2 0f80 	cmp.w	r2, #4194304	@ 0x400000
 8102c76:	d0cb      	beq.n	8102c10 <HAL_RCCEx_GetPeriphCLKFreq+0x24>
 8102c78:	d9de      	bls.n	8102c38 <HAL_RCCEx_GetPeriphCLKFreq+0x4c>
 8102c7a:	f5b2 0fc0 	cmp.w	r2, #6291456	@ 0x600000
 8102c7e:	f000 8113 	beq.w	8102ea8 <HAL_RCCEx_GetPeriphCLKFreq+0x2bc>
 8102c82:	f5b2 0f00 	cmp.w	r2, #8388608	@ 0x800000
 8102c86:	e7e9      	b.n	8102c5c <HAL_RCCEx_GetPeriphCLKFreq+0x70>
 8102c88:	6cda      	ldr	r2, [r3, #76]	@ 0x4c
 8102c8a:	6819      	ldr	r1, [r3, #0]
 8102c8c:	0748      	lsls	r0, r1, #29
 8102c8e:	f002 5240 	and.w	r2, r2, #805306368	@ 0x30000000
 8102c92:	d506      	bpl.n	8102ca2 <HAL_RCCEx_GetPeriphCLKFreq+0xb6>
 8102c94:	b92a      	cbnz	r2, 8102ca2 <HAL_RCCEx_GetPeriphCLKFreq+0xb6>
 8102c96:	681b      	ldr	r3, [r3, #0]
 8102c98:	4875      	ldr	r0, [pc, #468]	@ (8102e70 <HAL_RCCEx_GetPeriphCLKFreq+0x284>)
 8102c9a:	f3c3 03c1 	ubfx	r3, r3, #3, #2
 8102c9e:	40d8      	lsrs	r0, r3
 8102ca0:	e09a      	b.n	8102dd8 <HAL_RCCEx_GetPeriphCLKFreq+0x1ec>
 8102ca2:	4b72      	ldr	r3, [pc, #456]	@ (8102e6c <HAL_RCCEx_GetPeriphCLKFreq+0x280>)
 8102ca4:	6819      	ldr	r1, [r3, #0]
 8102ca6:	05c9      	lsls	r1, r1, #23
 8102ca8:	d503      	bpl.n	8102cb2 <HAL_RCCEx_GetPeriphCLKFreq+0xc6>
 8102caa:	f1b2 5f80 	cmp.w	r2, #268435456	@ 0x10000000
 8102cae:	f000 80fd 	beq.w	8102eac <HAL_RCCEx_GetPeriphCLKFreq+0x2c0>
 8102cb2:	6818      	ldr	r0, [r3, #0]
 8102cb4:	f410 3000 	ands.w	r0, r0, #131072	@ 0x20000
 8102cb8:	f000 808e 	beq.w	8102dd8 <HAL_RCCEx_GetPeriphCLKFreq+0x1ec>
 8102cbc:	f1b2 5f00 	cmp.w	r2, #536870912	@ 0x20000000
 8102cc0:	486c      	ldr	r0, [pc, #432]	@ (8102e74 <HAL_RCCEx_GetPeriphCLKFreq+0x288>)
 8102cc2:	bf18      	it	ne
 8102cc4:	2000      	movne	r0, #0
 8102cc6:	e087      	b.n	8102dd8 <HAL_RCCEx_GetPeriphCLKFreq+0x1ec>
 8102cc8:	f5a0 6300 	sub.w	r3, r0, #2048	@ 0x800
 8102ccc:	430b      	orrs	r3, r1
 8102cce:	d11f      	bne.n	8102d10 <HAL_RCCEx_GetPeriphCLKFreq+0x124>
 8102cd0:	4b66      	ldr	r3, [pc, #408]	@ (8102e6c <HAL_RCCEx_GetPeriphCLKFreq+0x280>)
 8102cd2:	6d9a      	ldr	r2, [r3, #88]	@ 0x58
 8102cd4:	f002 62e0 	and.w	r2, r2, #117440512	@ 0x7000000
 8102cd8:	f1b2 7f00 	cmp.w	r2, #33554432	@ 0x2000000
 8102cdc:	d098      	beq.n	8102c10 <HAL_RCCEx_GetPeriphCLKFreq+0x24>
 8102cde:	d9ab      	bls.n	8102c38 <HAL_RCCEx_GetPeriphCLKFreq+0x4c>
 8102ce0:	f1b2 7f40 	cmp.w	r2, #50331648	@ 0x3000000
 8102ce4:	f000 80e0 	beq.w	8102ea8 <HAL_RCCEx_GetPeriphCLKFreq+0x2bc>
 8102ce8:	f1b2 6f80 	cmp.w	r2, #67108864	@ 0x4000000
 8102cec:	d1b7      	bne.n	8102c5e <HAL_RCCEx_GetPeriphCLKFreq+0x72>
 8102cee:	6cda      	ldr	r2, [r3, #76]	@ 0x4c
 8102cf0:	6819      	ldr	r1, [r3, #0]
 8102cf2:	681b      	ldr	r3, [r3, #0]
 8102cf4:	0748      	lsls	r0, r1, #29
 8102cf6:	f002 5240 	and.w	r2, r2, #805306368	@ 0x30000000
 8102cfa:	d501      	bpl.n	8102d00 <HAL_RCCEx_GetPeriphCLKFreq+0x114>
 8102cfc:	2a00      	cmp	r2, #0
 8102cfe:	d0cb      	beq.n	8102c98 <HAL_RCCEx_GetPeriphCLKFreq+0xac>
 8102d00:	05d9      	lsls	r1, r3, #23
 8102d02:	d503      	bpl.n	8102d0c <HAL_RCCEx_GetPeriphCLKFreq+0x120>
 8102d04:	f1b2 5f80 	cmp.w	r2, #268435456	@ 0x10000000
 8102d08:	f000 80d0 	beq.w	8102eac <HAL_RCCEx_GetPeriphCLKFreq+0x2c0>
 8102d0c:	4b57      	ldr	r3, [pc, #348]	@ (8102e6c <HAL_RCCEx_GetPeriphCLKFreq+0x280>)
 8102d0e:	e7d0      	b.n	8102cb2 <HAL_RCCEx_GetPeriphCLKFreq+0xc6>
 8102d10:	f5a0 5380 	sub.w	r3, r0, #4096	@ 0x1000
 8102d14:	430b      	orrs	r3, r1
 8102d16:	d10f      	bne.n	8102d38 <HAL_RCCEx_GetPeriphCLKFreq+0x14c>
 8102d18:	4b54      	ldr	r3, [pc, #336]	@ (8102e6c <HAL_RCCEx_GetPeriphCLKFreq+0x280>)
 8102d1a:	6d1a      	ldr	r2, [r3, #80]	@ 0x50
 8102d1c:	f402 42e0 	and.w	r2, r2, #28672	@ 0x7000
 8102d20:	f5b2 5f00 	cmp.w	r2, #8192	@ 0x2000
 8102d24:	f43f af74 	beq.w	8102c10 <HAL_RCCEx_GetPeriphCLKFreq+0x24>
 8102d28:	d986      	bls.n	8102c38 <HAL_RCCEx_GetPeriphCLKFreq+0x4c>
 8102d2a:	f5b2 5f40 	cmp.w	r2, #12288	@ 0x3000
 8102d2e:	f000 80bb 	beq.w	8102ea8 <HAL_RCCEx_GetPeriphCLKFreq+0x2bc>
 8102d32:	f5b2 4f80 	cmp.w	r2, #16384	@ 0x4000
 8102d36:	e7d9      	b.n	8102cec <HAL_RCCEx_GetPeriphCLKFreq+0x100>
 8102d38:	f5a0 5300 	sub.w	r3, r0, #8192	@ 0x2000
 8102d3c:	430b      	orrs	r3, r1
 8102d3e:	d132      	bne.n	8102da6 <HAL_RCCEx_GetPeriphCLKFreq+0x1ba>
 8102d40:	4a4a      	ldr	r2, [pc, #296]	@ (8102e6c <HAL_RCCEx_GetPeriphCLKFreq+0x280>)
 8102d42:	6d13      	ldr	r3, [r2, #80]	@ 0x50
 8102d44:	f403 23e0 	and.w	r3, r3, #458752	@ 0x70000
 8102d48:	f5b3 3f40 	cmp.w	r3, #196608	@ 0x30000
 8102d4c:	f000 8081 	beq.w	8102e52 <HAL_RCCEx_GetPeriphCLKFreq+0x266>
 8102d50:	d80d      	bhi.n	8102d6e <HAL_RCCEx_GetPeriphCLKFreq+0x182>
 8102d52:	f5b3 3f80 	cmp.w	r3, #65536	@ 0x10000
 8102d56:	d016      	beq.n	8102d86 <HAL_RCCEx_GetPeriphCLKFreq+0x19a>
 8102d58:	f5b3 3f00 	cmp.w	r3, #131072	@ 0x20000
 8102d5c:	d01b      	beq.n	8102d96 <HAL_RCCEx_GetPeriphCLKFreq+0x1aa>
 8102d5e:	2b00      	cmp	r3, #0
 8102d60:	f47f af7d 	bne.w	8102c5e <HAL_RCCEx_GetPeriphCLKFreq+0x72>
 8102d64:	b005      	add	sp, #20
 8102d66:	f85d eb04 	ldr.w	lr, [sp], #4
 8102d6a:	f7fe befd 	b.w	8101b68 <HAL_RCC_GetPCLK1Freq>
 8102d6e:	f5b3 2f80 	cmp.w	r3, #262144	@ 0x40000
 8102d72:	d074      	beq.n	8102e5e <HAL_RCCEx_GetPeriphCLKFreq+0x272>
 8102d74:	f5b3 2fa0 	cmp.w	r3, #327680	@ 0x50000
 8102d78:	f47f af71 	bne.w	8102c5e <HAL_RCCEx_GetPeriphCLKFreq+0x72>
 8102d7c:	6810      	ldr	r0, [r2, #0]
 8102d7e:	4b3d      	ldr	r3, [pc, #244]	@ (8102e74 <HAL_RCCEx_GetPeriphCLKFreq+0x288>)
 8102d80:	f410 3000 	ands.w	r0, r0, #131072	@ 0x20000
 8102d84:	e06f      	b.n	8102e66 <HAL_RCCEx_GetPeriphCLKFreq+0x27a>
 8102d86:	6810      	ldr	r0, [r2, #0]
 8102d88:	f010 6000 	ands.w	r0, r0, #134217728	@ 0x8000000
 8102d8c:	d024      	beq.n	8102dd8 <HAL_RCCEx_GetPeriphCLKFreq+0x1ec>
 8102d8e:	a801      	add	r0, sp, #4
 8102d90:	f7ff fd2e 	bl	81027f0 <HAL_RCCEx_GetPLL2ClockFreq>
 8102d94:	e75b      	b.n	8102c4e <HAL_RCCEx_GetPeriphCLKFreq+0x62>
 8102d96:	6810      	ldr	r0, [r2, #0]
 8102d98:	f010 5000 	ands.w	r0, r0, #536870912	@ 0x20000000
 8102d9c:	d01c      	beq.n	8102dd8 <HAL_RCCEx_GetPeriphCLKFreq+0x1ec>
 8102d9e:	a801      	add	r0, sp, #4
 8102da0:	f7ff fdd0 	bl	8102944 <HAL_RCCEx_GetPLL3ClockFreq>
 8102da4:	e753      	b.n	8102c4e <HAL_RCCEx_GetPeriphCLKFreq+0x62>
 8102da6:	f5a0 2300 	sub.w	r3, r0, #524288	@ 0x80000
 8102daa:	430b      	orrs	r3, r1
 8102dac:	d120      	bne.n	8102df0 <HAL_RCCEx_GetPeriphCLKFreq+0x204>
 8102dae:	4b2f      	ldr	r3, [pc, #188]	@ (8102e6c <HAL_RCCEx_GetPeriphCLKFreq+0x280>)
 8102db0:	6d9a      	ldr	r2, [r3, #88]	@ 0x58
 8102db2:	f402 3240 	and.w	r2, r2, #196608	@ 0x30000
 8102db6:	f5b2 3f80 	cmp.w	r2, #65536	@ 0x10000
 8102dba:	d010      	beq.n	8102dde <HAL_RCCEx_GetPeriphCLKFreq+0x1f2>
 8102dbc:	f5b2 3f00 	cmp.w	r2, #131072	@ 0x20000
 8102dc0:	d095      	beq.n	8102cee <HAL_RCCEx_GetPeriphCLKFreq+0x102>
 8102dc2:	2a00      	cmp	r2, #0
 8102dc4:	f47f af4b 	bne.w	8102c5e <HAL_RCCEx_GetPeriphCLKFreq+0x72>
 8102dc8:	6818      	ldr	r0, [r3, #0]
 8102dca:	f010 6000 	ands.w	r0, r0, #134217728	@ 0x8000000
 8102dce:	d003      	beq.n	8102dd8 <HAL_RCCEx_GetPeriphCLKFreq+0x1ec>
 8102dd0:	a801      	add	r0, sp, #4
 8102dd2:	f7ff fd0d 	bl	81027f0 <HAL_RCCEx_GetPLL2ClockFreq>
 8102dd6:	9801      	ldr	r0, [sp, #4]
 8102dd8:	b005      	add	sp, #20
 8102dda:	f85d fb04 	ldr.w	pc, [sp], #4
 8102dde:	6818      	ldr	r0, [r3, #0]
 8102de0:	f010 5000 	ands.w	r0, r0, #536870912	@ 0x20000000
 8102de4:	d0f8      	beq.n	8102dd8 <HAL_RCCEx_GetPeriphCLKFreq+0x1ec>
 8102de6:	a801      	add	r0, sp, #4
 8102de8:	f7ff fdac 	bl	8102944 <HAL_RCCEx_GetPLL3ClockFreq>
 8102dec:	9803      	ldr	r0, [sp, #12]
 8102dee:	e7f3      	b.n	8102dd8 <HAL_RCCEx_GetPeriphCLKFreq+0x1ec>
 8102df0:	f5a0 3380 	sub.w	r3, r0, #65536	@ 0x10000
 8102df4:	430b      	orrs	r3, r1
 8102df6:	d10c      	bne.n	8102e12 <HAL_RCCEx_GetPeriphCLKFreq+0x226>
 8102df8:	4b1c      	ldr	r3, [pc, #112]	@ (8102e6c <HAL_RCCEx_GetPeriphCLKFreq+0x280>)
 8102dfa:	6cda      	ldr	r2, [r3, #76]	@ 0x4c
 8102dfc:	03d2      	lsls	r2, r2, #15
 8102dfe:	f57f af1e 	bpl.w	8102c3e <HAL_RCCEx_GetPeriphCLKFreq+0x52>
 8102e02:	6818      	ldr	r0, [r3, #0]
 8102e04:	f010 6000 	ands.w	r0, r0, #134217728	@ 0x8000000
 8102e08:	d0e6      	beq.n	8102dd8 <HAL_RCCEx_GetPeriphCLKFreq+0x1ec>
 8102e0a:	a801      	add	r0, sp, #4
 8102e0c:	f7ff fcf0 	bl	81027f0 <HAL_RCCEx_GetPLL2ClockFreq>
 8102e10:	e7ec      	b.n	8102dec <HAL_RCCEx_GetPeriphCLKFreq+0x200>
 8102e12:	f5a0 4380 	sub.w	r3, r0, #16384	@ 0x4000
 8102e16:	430b      	orrs	r3, r1
 8102e18:	d130      	bne.n	8102e7c <HAL_RCCEx_GetPeriphCLKFreq+0x290>
 8102e1a:	4a14      	ldr	r2, [pc, #80]	@ (8102e6c <HAL_RCCEx_GetPeriphCLKFreq+0x280>)
 8102e1c:	6d93      	ldr	r3, [r2, #88]	@ 0x58
 8102e1e:	f003 43e0 	and.w	r3, r3, #1879048192	@ 0x70000000
 8102e22:	f1b3 5f40 	cmp.w	r3, #805306368	@ 0x30000000
 8102e26:	d014      	beq.n	8102e52 <HAL_RCCEx_GetPeriphCLKFreq+0x266>
 8102e28:	d80d      	bhi.n	8102e46 <HAL_RCCEx_GetPeriphCLKFreq+0x25a>
 8102e2a:	f1b3 5f80 	cmp.w	r3, #268435456	@ 0x10000000
 8102e2e:	d0aa      	beq.n	8102d86 <HAL_RCCEx_GetPeriphCLKFreq+0x19a>
 8102e30:	f1b3 5f00 	cmp.w	r3, #536870912	@ 0x20000000
 8102e34:	d0af      	beq.n	8102d96 <HAL_RCCEx_GetPeriphCLKFreq+0x1aa>
 8102e36:	2b00      	cmp	r3, #0
 8102e38:	f47f af11 	bne.w	8102c5e <HAL_RCCEx_GetPeriphCLKFreq+0x72>
 8102e3c:	b005      	add	sp, #20
 8102e3e:	f85d eb04 	ldr.w	lr, [sp], #4
 8102e42:	f7ff bcc3 	b.w	81027cc <HAL_RCCEx_GetD3PCLK1Freq>
 8102e46:	f1b3 4f80 	cmp.w	r3, #1073741824	@ 0x40000000
 8102e4a:	d008      	beq.n	8102e5e <HAL_RCCEx_GetPeriphCLKFreq+0x272>
 8102e4c:	f1b3 4fa0 	cmp.w	r3, #1342177280	@ 0x50000000
 8102e50:	e792      	b.n	8102d78 <HAL_RCCEx_GetPeriphCLKFreq+0x18c>
 8102e52:	6810      	ldr	r0, [r2, #0]
 8102e54:	f010 0004 	ands.w	r0, r0, #4
 8102e58:	d0be      	beq.n	8102dd8 <HAL_RCCEx_GetPeriphCLKFreq+0x1ec>
 8102e5a:	6813      	ldr	r3, [r2, #0]
 8102e5c:	e71c      	b.n	8102c98 <HAL_RCCEx_GetPeriphCLKFreq+0xac>
 8102e5e:	6810      	ldr	r0, [r2, #0]
 8102e60:	4b05      	ldr	r3, [pc, #20]	@ (8102e78 <HAL_RCCEx_GetPeriphCLKFreq+0x28c>)
 8102e62:	f410 7080 	ands.w	r0, r0, #256	@ 0x100
 8102e66:	bf18      	it	ne
 8102e68:	4618      	movne	r0, r3
 8102e6a:	e7b5      	b.n	8102dd8 <HAL_RCCEx_GetPeriphCLKFreq+0x1ec>
 8102e6c:	58024400 	.word	0x58024400
 8102e70:	03d09000 	.word	0x03d09000
 8102e74:	017d7840 	.word	0x017d7840
 8102e78:	003d0900 	.word	0x003d0900
 8102e7c:	f5a0 4000 	sub.w	r0, r0, #32768	@ 0x8000
 8102e80:	4308      	orrs	r0, r1
 8102e82:	f47f aeec 	bne.w	8102c5e <HAL_RCCEx_GetPeriphCLKFreq+0x72>
 8102e86:	4a0a      	ldr	r2, [pc, #40]	@ (8102eb0 <HAL_RCCEx_GetPeriphCLKFreq+0x2c4>)
 8102e88:	6d13      	ldr	r3, [r2, #80]	@ 0x50
 8102e8a:	f003 5340 	and.w	r3, r3, #805306368	@ 0x30000000
 8102e8e:	f1b3 5f80 	cmp.w	r3, #268435456	@ 0x10000000
 8102e92:	d007      	beq.n	8102ea4 <HAL_RCCEx_GetPeriphCLKFreq+0x2b8>
 8102e94:	f1b3 5f00 	cmp.w	r3, #536870912	@ 0x20000000
 8102e98:	f43f af75 	beq.w	8102d86 <HAL_RCCEx_GetPeriphCLKFreq+0x19a>
 8102e9c:	2b00      	cmp	r3, #0
 8102e9e:	f47f aede 	bne.w	8102c5e <HAL_RCCEx_GetPeriphCLKFreq+0x72>
 8102ea2:	e76b      	b.n	8102d7c <HAL_RCCEx_GetPeriphCLKFreq+0x190>
 8102ea4:	6810      	ldr	r0, [r2, #0]
 8102ea6:	e6cb      	b.n	8102c40 <HAL_RCCEx_GetPeriphCLKFreq+0x54>
 8102ea8:	4802      	ldr	r0, [pc, #8]	@ (8102eb4 <HAL_RCCEx_GetPeriphCLKFreq+0x2c8>)
 8102eaa:	e795      	b.n	8102dd8 <HAL_RCCEx_GetPeriphCLKFreq+0x1ec>
 8102eac:	4802      	ldr	r0, [pc, #8]	@ (8102eb8 <HAL_RCCEx_GetPeriphCLKFreq+0x2cc>)
 8102eae:	e793      	b.n	8102dd8 <HAL_RCCEx_GetPeriphCLKFreq+0x1ec>
 8102eb0:	58024400 	.word	0x58024400
 8102eb4:	00bb8000 	.word	0x00bb8000
 8102eb8:	003d0900 	.word	0x003d0900

08102ebc <HAL_RTC_WaitForSynchro>:
 8102ebc:	b538      	push	{r3, r4, r5, lr}
 8102ebe:	6803      	ldr	r3, [r0, #0]
 8102ec0:	4a09      	ldr	r2, [pc, #36]	@ (8102ee8 <HAL_RTC_WaitForSynchro+0x2c>)
 8102ec2:	60da      	str	r2, [r3, #12]
 8102ec4:	4604      	mov	r4, r0
 8102ec6:	f7fe fa7d 	bl	81013c4 <HAL_GetTick>
 8102eca:	4605      	mov	r5, r0
 8102ecc:	6823      	ldr	r3, [r4, #0]
 8102ece:	68db      	ldr	r3, [r3, #12]
 8102ed0:	069b      	lsls	r3, r3, #26
 8102ed2:	d501      	bpl.n	8102ed8 <HAL_RTC_WaitForSynchro+0x1c>
 8102ed4:	2000      	movs	r0, #0
 8102ed6:	bd38      	pop	{r3, r4, r5, pc}
 8102ed8:	f7fe fa74 	bl	81013c4 <HAL_GetTick>
 8102edc:	1b40      	subs	r0, r0, r5
 8102ede:	f5b0 7f7a 	cmp.w	r0, #1000	@ 0x3e8
 8102ee2:	d9f3      	bls.n	8102ecc <HAL_RTC_WaitForSynchro+0x10>
 8102ee4:	2003      	movs	r0, #3
 8102ee6:	e7f6      	b.n	8102ed6 <HAL_RTC_WaitForSynchro+0x1a>
 8102ee8:	0003ff5f 	.word	0x0003ff5f

08102eec <RTC_EnterInitMode>:
 8102eec:	6802      	ldr	r2, [r0, #0]
 8102eee:	b570      	push	{r4, r5, r6, lr}
 8102ef0:	68d4      	ldr	r4, [r2, #12]
 8102ef2:	f014 0440 	ands.w	r4, r4, #64	@ 0x40
 8102ef6:	4605      	mov	r5, r0
 8102ef8:	d11a      	bne.n	8102f30 <RTC_EnterInitMode+0x44>
 8102efa:	f04f 33ff 	mov.w	r3, #4294967295
 8102efe:	60d3      	str	r3, [r2, #12]
 8102f00:	f7fe fa60 	bl	81013c4 <HAL_GetTick>
 8102f04:	4623      	mov	r3, r4
 8102f06:	4606      	mov	r6, r0
 8102f08:	682a      	ldr	r2, [r5, #0]
 8102f0a:	68d4      	ldr	r4, [r2, #12]
 8102f0c:	f014 0440 	ands.w	r4, r4, #64	@ 0x40
 8102f10:	d101      	bne.n	8102f16 <RTC_EnterInitMode+0x2a>
 8102f12:	2b03      	cmp	r3, #3
 8102f14:	d101      	bne.n	8102f1a <RTC_EnterInitMode+0x2e>
 8102f16:	4618      	mov	r0, r3
 8102f18:	bd70      	pop	{r4, r5, r6, pc}
 8102f1a:	f7fe fa53 	bl	81013c4 <HAL_GetTick>
 8102f1e:	1b80      	subs	r0, r0, r6
 8102f20:	f5b0 7f7a 	cmp.w	r0, #1000	@ 0x3e8
 8102f24:	4623      	mov	r3, r4
 8102f26:	bf84      	itt	hi
 8102f28:	2303      	movhi	r3, #3
 8102f2a:	f885 3021 	strbhi.w	r3, [r5, #33]	@ 0x21
 8102f2e:	e7eb      	b.n	8102f08 <RTC_EnterInitMode+0x1c>
 8102f30:	2300      	movs	r3, #0
 8102f32:	e7f0      	b.n	8102f16 <RTC_EnterInitMode+0x2a>

08102f34 <RTC_ExitInitMode>:
 8102f34:	b538      	push	{r3, r4, r5, lr}
 8102f36:	4c0f      	ldr	r4, [pc, #60]	@ (8102f74 <RTC_ExitInitMode+0x40>)
 8102f38:	68e3      	ldr	r3, [r4, #12]
 8102f3a:	f023 0380 	bic.w	r3, r3, #128	@ 0x80
 8102f3e:	60e3      	str	r3, [r4, #12]
 8102f40:	68a3      	ldr	r3, [r4, #8]
 8102f42:	069b      	lsls	r3, r3, #26
 8102f44:	4605      	mov	r5, r0
 8102f46:	d406      	bmi.n	8102f56 <RTC_ExitInitMode+0x22>
 8102f48:	f7ff ffb8 	bl	8102ebc <HAL_RTC_WaitForSynchro>
 8102f4c:	b110      	cbz	r0, 8102f54 <RTC_ExitInitMode+0x20>
 8102f4e:	2003      	movs	r0, #3
 8102f50:	f885 0021 	strb.w	r0, [r5, #33]	@ 0x21
 8102f54:	bd38      	pop	{r3, r4, r5, pc}
 8102f56:	68a3      	ldr	r3, [r4, #8]
 8102f58:	f023 0320 	bic.w	r3, r3, #32
 8102f5c:	60a3      	str	r3, [r4, #8]
 8102f5e:	f7ff ffad 	bl	8102ebc <HAL_RTC_WaitForSynchro>
 8102f62:	b110      	cbz	r0, 8102f6a <RTC_ExitInitMode+0x36>
 8102f64:	2003      	movs	r0, #3
 8102f66:	f885 0021 	strb.w	r0, [r5, #33]	@ 0x21
 8102f6a:	68a3      	ldr	r3, [r4, #8]
 8102f6c:	f043 0320 	orr.w	r3, r3, #32
 8102f70:	60a3      	str	r3, [r4, #8]
 8102f72:	e7ef      	b.n	8102f54 <RTC_ExitInitMode+0x20>
 8102f74:	58004000 	.word	0x58004000

08102f78 <HAL_RTC_Init>:
 8102f78:	b538      	push	{r3, r4, r5, lr}
 8102f7a:	4604      	mov	r4, r0
 8102f7c:	2800      	cmp	r0, #0
 8102f7e:	d045      	beq.n	810300c <HAL_RTC_Init+0x94>
 8102f80:	f890 3021 	ldrb.w	r3, [r0, #33]	@ 0x21
 8102f84:	f003 02ff 	and.w	r2, r3, #255	@ 0xff
 8102f88:	b91b      	cbnz	r3, 8102f92 <HAL_RTC_Init+0x1a>
 8102f8a:	f880 2020 	strb.w	r2, [r0, #32]
 8102f8e:	f7fd fddb 	bl	8100b48 <HAL_RTC_MspInit>
 8102f92:	2302      	movs	r3, #2
 8102f94:	f884 3021 	strb.w	r3, [r4, #33]	@ 0x21
 8102f98:	6823      	ldr	r3, [r4, #0]
 8102f9a:	68da      	ldr	r2, [r3, #12]
 8102f9c:	06d2      	lsls	r2, r2, #27
 8102f9e:	d504      	bpl.n	8102faa <HAL_RTC_Init+0x32>
 8102fa0:	2301      	movs	r3, #1
 8102fa2:	f884 3021 	strb.w	r3, [r4, #33]	@ 0x21
 8102fa6:	2000      	movs	r0, #0
 8102fa8:	bd38      	pop	{r3, r4, r5, pc}
 8102faa:	22ca      	movs	r2, #202	@ 0xca
 8102fac:	625a      	str	r2, [r3, #36]	@ 0x24
 8102fae:	2253      	movs	r2, #83	@ 0x53
 8102fb0:	625a      	str	r2, [r3, #36]	@ 0x24
 8102fb2:	4620      	mov	r0, r4
 8102fb4:	f7ff ff9a 	bl	8102eec <RTC_EnterInitMode>
 8102fb8:	bb10      	cbnz	r0, 8103000 <HAL_RTC_Init+0x88>
 8102fba:	6822      	ldr	r2, [r4, #0]
 8102fbc:	6920      	ldr	r0, [r4, #16]
 8102fbe:	6893      	ldr	r3, [r2, #8]
 8102fc0:	f423 03e0 	bic.w	r3, r3, #7340032	@ 0x700000
 8102fc4:	f023 0340 	bic.w	r3, r3, #64	@ 0x40
 8102fc8:	6093      	str	r3, [r2, #8]
 8102fca:	6863      	ldr	r3, [r4, #4]
 8102fcc:	6891      	ldr	r1, [r2, #8]
 8102fce:	4303      	orrs	r3, r0
 8102fd0:	69a0      	ldr	r0, [r4, #24]
 8102fd2:	4303      	orrs	r3, r0
 8102fd4:	430b      	orrs	r3, r1
 8102fd6:	6093      	str	r3, [r2, #8]
 8102fd8:	e9d4 1302 	ldrd	r1, r3, [r4, #8]
 8102fdc:	ea43 4301 	orr.w	r3, r3, r1, lsl #16
 8102fe0:	6113      	str	r3, [r2, #16]
 8102fe2:	4620      	mov	r0, r4
 8102fe4:	f7ff ffa6 	bl	8102f34 <RTC_ExitInitMode>
 8102fe8:	b950      	cbnz	r0, 8103000 <HAL_RTC_Init+0x88>
 8102fea:	6822      	ldr	r2, [r4, #0]
 8102fec:	6965      	ldr	r5, [r4, #20]
 8102fee:	6cd3      	ldr	r3, [r2, #76]	@ 0x4c
 8102ff0:	f023 0303 	bic.w	r3, r3, #3
 8102ff4:	64d3      	str	r3, [r2, #76]	@ 0x4c
 8102ff6:	69e3      	ldr	r3, [r4, #28]
 8102ff8:	6cd1      	ldr	r1, [r2, #76]	@ 0x4c
 8102ffa:	432b      	orrs	r3, r5
 8102ffc:	430b      	orrs	r3, r1
 8102ffe:	64d3      	str	r3, [r2, #76]	@ 0x4c
 8103000:	6823      	ldr	r3, [r4, #0]
 8103002:	22ff      	movs	r2, #255	@ 0xff
 8103004:	625a      	str	r2, [r3, #36]	@ 0x24
 8103006:	2800      	cmp	r0, #0
 8103008:	d0ca      	beq.n	8102fa0 <HAL_RTC_Init+0x28>
 810300a:	e7cd      	b.n	8102fa8 <HAL_RTC_Init+0x30>
 810300c:	2001      	movs	r0, #1
 810300e:	e7cb      	b.n	8102fa8 <HAL_RTC_Init+0x30>

08103010 <HAL_RTCEx_SetTamper>:
 8103010:	b5f0      	push	{r4, r5, r6, r7, lr}
 8103012:	f890 3020 	ldrb.w	r3, [r0, #32]
 8103016:	2b01      	cmp	r3, #1
 8103018:	4604      	mov	r4, r0
 810301a:	f04f 0002 	mov.w	r0, #2
 810301e:	d03b      	beq.n	8103098 <HAL_RTCEx_SetTamper+0x88>
 8103020:	f884 0021 	strb.w	r0, [r4, #33]	@ 0x21
 8103024:	6820      	ldr	r0, [r4, #0]
 8103026:	688e      	ldr	r6, [r1, #8]
 8103028:	680a      	ldr	r2, [r1, #0]
 810302a:	6c03      	ldr	r3, [r0, #64]	@ 0x40
 810302c:	2e08      	cmp	r6, #8
 810302e:	ea43 0302 	orr.w	r3, r3, r2
 8103032:	ea4f 0542 	mov.w	r5, r2, lsl #1
 8103036:	d001      	beq.n	810303c <HAL_RTCEx_SetTamper+0x2c>
 8103038:	2e02      	cmp	r6, #2
 810303a:	d12e      	bne.n	810309a <HAL_RTCEx_SetTamper+0x8a>
 810303c:	432b      	orrs	r3, r5
 810303e:	68ce      	ldr	r6, [r1, #12]
 8103040:	f002 0701 	and.w	r7, r2, #1
 8103044:	f002 0508 	and.w	r5, r2, #8
 8103048:	f002 0220 	and.w	r2, r2, #32
 810304c:	b346      	cbz	r6, 81030a0 <HAL_RTCEx_SetTamper+0x90>
 810304e:	ea43 4347 	orr.w	r3, r3, r7, lsl #17
 8103052:	b10d      	cbz	r5, 8103058 <HAL_RTCEx_SetTamper+0x48>
 8103054:	f443 1380 	orr.w	r3, r3, #1048576	@ 0x100000
 8103058:	b10a      	cbz	r2, 810305e <HAL_RTCEx_SetTamper+0x4e>
 810305a:	f443 0300 	orr.w	r3, r3, #8388608	@ 0x800000
 810305e:	690e      	ldr	r6, [r1, #16]
 8103060:	b34e      	cbz	r6, 81030b6 <HAL_RTCEx_SetTamper+0xa6>
 8103062:	ea43 4387 	orr.w	r3, r3, r7, lsl #18
 8103066:	b10d      	cbz	r5, 810306c <HAL_RTCEx_SetTamper+0x5c>
 8103068:	f443 1300 	orr.w	r3, r3, #2097152	@ 0x200000
 810306c:	b10a      	cbz	r2, 8103072 <HAL_RTCEx_SetTamper+0x62>
 810306e:	f043 7380 	orr.w	r3, r3, #16777216	@ 0x1000000
 8103072:	e9d1 2505 	ldrd	r2, r5, [r1, #20]
 8103076:	432a      	orrs	r2, r5
 8103078:	69cd      	ldr	r5, [r1, #28]
 810307a:	432a      	orrs	r2, r5
 810307c:	6a0d      	ldr	r5, [r1, #32]
 810307e:	6a49      	ldr	r1, [r1, #36]	@ 0x24
 8103080:	432a      	orrs	r2, r5
 8103082:	f36f 13cf 	bfc	r3, #7, #9
 8103086:	430a      	orrs	r2, r1
 8103088:	4313      	orrs	r3, r2
 810308a:	6403      	str	r3, [r0, #64]	@ 0x40
 810308c:	2301      	movs	r3, #1
 810308e:	2000      	movs	r0, #0
 8103090:	f884 3021 	strb.w	r3, [r4, #33]	@ 0x21
 8103094:	f884 0020 	strb.w	r0, [r4, #32]
 8103098:	bdf0      	pop	{r4, r5, r6, r7, pc}
 810309a:	ea23 0305 	bic.w	r3, r3, r5
 810309e:	e7ce      	b.n	810303e <HAL_RTCEx_SetTamper+0x2e>
 81030a0:	b10f      	cbz	r7, 81030a6 <HAL_RTCEx_SetTamper+0x96>
 81030a2:	f423 3300 	bic.w	r3, r3, #131072	@ 0x20000
 81030a6:	b10d      	cbz	r5, 81030ac <HAL_RTCEx_SetTamper+0x9c>
 81030a8:	f423 1380 	bic.w	r3, r3, #1048576	@ 0x100000
 81030ac:	2a00      	cmp	r2, #0
 81030ae:	d0d6      	beq.n	810305e <HAL_RTCEx_SetTamper+0x4e>
 81030b0:	f423 0300 	bic.w	r3, r3, #8388608	@ 0x800000
 81030b4:	e7d3      	b.n	810305e <HAL_RTCEx_SetTamper+0x4e>
 81030b6:	b10f      	cbz	r7, 81030bc <HAL_RTCEx_SetTamper+0xac>
 81030b8:	f423 2380 	bic.w	r3, r3, #262144	@ 0x40000
 81030bc:	b10d      	cbz	r5, 81030c2 <HAL_RTCEx_SetTamper+0xb2>
 81030be:	f423 1300 	bic.w	r3, r3, #2097152	@ 0x200000
 81030c2:	2a00      	cmp	r2, #0
 81030c4:	d0d5      	beq.n	8103072 <HAL_RTCEx_SetTamper+0x62>
 81030c6:	f023 7380 	bic.w	r3, r3, #16777216	@ 0x1000000
 81030ca:	e7d2      	b.n	8103072 <HAL_RTCEx_SetTamper+0x62>

081030cc <SAI_Disable>:
 81030cc:	b510      	push	{r4, lr}
 81030ce:	4b0e      	ldr	r3, [pc, #56]	@ (8103108 <SAI_Disable+0x3c>)
 81030d0:	6804      	ldr	r4, [r0, #0]
 81030d2:	681a      	ldr	r2, [r3, #0]
 81030d4:	f641 3358 	movw	r3, #7000	@ 0x1b58
 81030d8:	fbb2 f2f3 	udiv	r2, r2, r3
 81030dc:	6823      	ldr	r3, [r4, #0]
 81030de:	f423 3380 	bic.w	r3, r3, #65536	@ 0x10000
 81030e2:	4601      	mov	r1, r0
 81030e4:	0092      	lsls	r2, r2, #2
 81030e6:	6023      	str	r3, [r4, #0]
 81030e8:	b93a      	cbnz	r2, 81030fa <SAI_Disable+0x2e>
 81030ea:	f8d1 3094 	ldr.w	r3, [r1, #148]	@ 0x94
 81030ee:	f043 0340 	orr.w	r3, r3, #64	@ 0x40
 81030f2:	f8c1 3094 	str.w	r3, [r1, #148]	@ 0x94
 81030f6:	2003      	movs	r0, #3
 81030f8:	bd10      	pop	{r4, pc}
 81030fa:	6820      	ldr	r0, [r4, #0]
 81030fc:	f410 3080 	ands.w	r0, r0, #65536	@ 0x10000
 8103100:	f102 32ff 	add.w	r2, r2, #4294967295
 8103104:	d1f0      	bne.n	81030e8 <SAI_Disable+0x1c>
 8103106:	e7f7      	b.n	81030f8 <SAI_Disable+0x2c>
 8103108:	10000004 	.word	0x10000004

0810310c <HAL_SAI_Init>:
 810310c:	e92d 47f0 	stmdb	sp!, {r4, r5, r6, r7, r8, r9, sl, lr}
 8103110:	4604      	mov	r4, r0
 8103112:	b920      	cbnz	r0, 810311e <HAL_SAI_Init+0x12>
 8103114:	f04f 0801 	mov.w	r8, #1
 8103118:	4640      	mov	r0, r8
 810311a:	e8bd 87f0 	ldmia.w	sp!, {r4, r5, r6, r7, r8, r9, sl, pc}
 810311e:	f7fe f96b 	bl	81013f8 <HAL_GetREVID>
 8103122:	f894 3038 	ldrb.w	r3, [r4, #56]	@ 0x38
 8103126:	f8df 92d8 	ldr.w	r9, [pc, #728]	@ 8103400 <HAL_SAI_Init+0x2f4>
 810312a:	2b01      	cmp	r3, #1
 810312c:	6823      	ldr	r3, [r4, #0]
 810312e:	d10a      	bne.n	8103146 <HAL_SAI_Init+0x3a>
 8103130:	454b      	cmp	r3, r9
 8103132:	d002      	beq.n	810313a <HAL_SAI_Init+0x2e>
 8103134:	4aa8      	ldr	r2, [pc, #672]	@ (81033d8 <HAL_SAI_Init+0x2cc>)
 8103136:	4293      	cmp	r3, r2
 8103138:	d1ec      	bne.n	8103114 <HAL_SAI_Init+0x8>
 810313a:	6862      	ldr	r2, [r4, #4]
 810313c:	2a01      	cmp	r2, #1
 810313e:	d1e9      	bne.n	8103114 <HAL_SAI_Init+0x8>
 8103140:	6c62      	ldr	r2, [r4, #68]	@ 0x44
 8103142:	2a00      	cmp	r2, #0
 8103144:	d1e6      	bne.n	8103114 <HAL_SAI_Init+0x8>
 8103146:	454b      	cmp	r3, r9
 8103148:	d018      	beq.n	810317c <HAL_SAI_Init+0x70>
 810314a:	4aa4      	ldr	r2, [pc, #656]	@ (81033dc <HAL_SAI_Init+0x2d0>)
 810314c:	4293      	cmp	r3, r2
 810314e:	d015      	beq.n	810317c <HAL_SAI_Init+0x70>
 8103150:	f502 7278 	add.w	r2, r2, #992	@ 0x3e0
 8103154:	4293      	cmp	r3, r2
 8103156:	d037      	beq.n	81031c8 <HAL_SAI_Init+0xbc>
 8103158:	3220      	adds	r2, #32
 810315a:	4293      	cmp	r3, r2
 810315c:	d034      	beq.n	81031c8 <HAL_SAI_Init+0xbc>
 810315e:	f502 7278 	add.w	r2, r2, #992	@ 0x3e0
 8103162:	4293      	cmp	r3, r2
 8103164:	d032      	beq.n	81031cc <HAL_SAI_Init+0xc0>
 8103166:	3220      	adds	r2, #32
 8103168:	4293      	cmp	r3, r2
 810316a:	d02f      	beq.n	81031cc <HAL_SAI_Init+0xc0>
 810316c:	4a9a      	ldr	r2, [pc, #616]	@ (81033d8 <HAL_SAI_Init+0x2cc>)
 810316e:	4293      	cmp	r3, r2
 8103170:	d002      	beq.n	8103178 <HAL_SAI_Init+0x6c>
 8103172:	3220      	adds	r2, #32
 8103174:	4293      	cmp	r3, r2
 8103176:	d1cd      	bne.n	8103114 <HAL_SAI_Init+0x8>
 8103178:	4d99      	ldr	r5, [pc, #612]	@ (81033e0 <HAL_SAI_Init+0x2d4>)
 810317a:	e000      	b.n	810317e <HAL_SAI_Init+0x72>
 810317c:	4d99      	ldr	r5, [pc, #612]	@ (81033e4 <HAL_SAI_Init+0x2d8>)
 810317e:	f894 3091 	ldrb.w	r3, [r4, #145]	@ 0x91
 8103182:	f003 02ff 	and.w	r2, r3, #255	@ 0xff
 8103186:	b923      	cbnz	r3, 8103192 <HAL_SAI_Init+0x86>
 8103188:	f884 2090 	strb.w	r2, [r4, #144]	@ 0x90
 810318c:	4620      	mov	r0, r4
 810318e:	f7fd ff6d 	bl	810106c <HAL_SAI_MspInit>
 8103192:	4620      	mov	r0, r4
 8103194:	f7ff ff9a 	bl	81030cc <SAI_Disable>
 8103198:	4680      	mov	r8, r0
 810319a:	2800      	cmp	r0, #0
 810319c:	d1ba      	bne.n	8103114 <HAL_SAI_Init+0x8>
 810319e:	2302      	movs	r3, #2
 81031a0:	f884 3091 	strb.w	r3, [r4, #145]	@ 0x91
 81031a4:	68e3      	ldr	r3, [r4, #12]
 81031a6:	2b01      	cmp	r3, #1
 81031a8:	d012      	beq.n	81031d0 <HAL_SAI_Init+0xc4>
 81031aa:	1e9a      	subs	r2, r3, #2
 81031ac:	4253      	negs	r3, r2
 81031ae:	4153      	adcs	r3, r2
 81031b0:	015b      	lsls	r3, r3, #5
 81031b2:	68a2      	ldr	r2, [r4, #8]
 81031b4:	3a01      	subs	r2, #1
 81031b6:	2a04      	cmp	r2, #4
 81031b8:	d80c      	bhi.n	81031d4 <HAL_SAI_Init+0xc8>
 81031ba:	e8df f012 	tbh	[pc, r2, lsl #1]
 81031be:	0102      	.short	0x0102
 81031c0:	00f700f9 	.word	0x00f700f9
 81031c4:	00ff00fc 	.word	0x00ff00fc
 81031c8:	4d87      	ldr	r5, [pc, #540]	@ (81033e8 <HAL_SAI_Init+0x2dc>)
 81031ca:	e7d8      	b.n	810317e <HAL_SAI_Init+0x72>
 81031cc:	4d87      	ldr	r5, [pc, #540]	@ (81033ec <HAL_SAI_Init+0x2e0>)
 81031ce:	e7d6      	b.n	810317e <HAL_SAI_Init+0x72>
 81031d0:	2310      	movs	r3, #16
 81031d2:	e7ee      	b.n	81031b2 <HAL_SAI_Init+0xa6>
 81031d4:	2700      	movs	r7, #0
 81031d6:	602b      	str	r3, [r5, #0]
 81031d8:	6a23      	ldr	r3, [r4, #32]
 81031da:	2b00      	cmp	r3, #0
 81031dc:	d055      	beq.n	810328a <HAL_SAI_Init+0x17e>
 81031de:	6823      	ldr	r3, [r4, #0]
 81031e0:	454b      	cmp	r3, r9
 81031e2:	d003      	beq.n	81031ec <HAL_SAI_Init+0xe0>
 81031e4:	4a7d      	ldr	r2, [pc, #500]	@ (81033dc <HAL_SAI_Init+0x2d0>)
 81031e6:	4293      	cmp	r3, r2
 81031e8:	f040 80ee 	bne.w	81033c8 <HAL_SAI_Init+0x2bc>
 81031ec:	f44f 7080 	mov.w	r0, #256	@ 0x100
 81031f0:	2100      	movs	r1, #0
 81031f2:	f7ff fcfb 	bl	8102bec <HAL_RCCEx_GetPeriphCLKFreq>
 81031f6:	6823      	ldr	r3, [r4, #0]
 81031f8:	4a7d      	ldr	r2, [pc, #500]	@ (81033f0 <HAL_SAI_Init+0x2e4>)
 81031fa:	4293      	cmp	r3, r2
 81031fc:	d002      	beq.n	8103204 <HAL_SAI_Init+0xf8>
 81031fe:	3220      	adds	r2, #32
 8103200:	4293      	cmp	r3, r2
 8103202:	d104      	bne.n	810320e <HAL_SAI_Init+0x102>
 8103204:	f44f 7000 	mov.w	r0, #512	@ 0x200
 8103208:	2100      	movs	r1, #0
 810320a:	f7ff fcef 	bl	8102bec <HAL_RCCEx_GetPeriphCLKFreq>
 810320e:	6823      	ldr	r3, [r4, #0]
 8103210:	4a78      	ldr	r2, [pc, #480]	@ (81033f4 <HAL_SAI_Init+0x2e8>)
 8103212:	4293      	cmp	r3, r2
 8103214:	d002      	beq.n	810321c <HAL_SAI_Init+0x110>
 8103216:	3220      	adds	r2, #32
 8103218:	4293      	cmp	r3, r2
 810321a:	d104      	bne.n	8103226 <HAL_SAI_Init+0x11a>
 810321c:	f44f 7000 	mov.w	r0, #512	@ 0x200
 8103220:	2100      	movs	r1, #0
 8103222:	f7ff fce3 	bl	8102bec <HAL_RCCEx_GetPeriphCLKFreq>
 8103226:	6822      	ldr	r2, [r4, #0]
 8103228:	4b6b      	ldr	r3, [pc, #428]	@ (81033d8 <HAL_SAI_Init+0x2cc>)
 810322a:	429a      	cmp	r2, r3
 810322c:	d104      	bne.n	8103238 <HAL_SAI_Init+0x12c>
 810322e:	f44f 6080 	mov.w	r0, #1024	@ 0x400
 8103232:	2100      	movs	r1, #0
 8103234:	f7ff fcda 	bl	8102bec <HAL_RCCEx_GetPeriphCLKFreq>
 8103238:	6822      	ldr	r2, [r4, #0]
 810323a:	4b6f      	ldr	r3, [pc, #444]	@ (81033f8 <HAL_SAI_Init+0x2ec>)
 810323c:	429a      	cmp	r2, r3
 810323e:	d104      	bne.n	810324a <HAL_SAI_Init+0x13e>
 8103240:	f44f 6000 	mov.w	r0, #2048	@ 0x800
 8103244:	2100      	movs	r1, #0
 8103246:	f7ff fcd1 	bl	8102bec <HAL_RCCEx_GetPeriphCLKFreq>
 810324a:	69a3      	ldr	r3, [r4, #24]
 810324c:	6c62      	ldr	r2, [r4, #68]	@ 0x44
 810324e:	6a26      	ldr	r6, [r4, #32]
 8103250:	f5b3 2f00 	cmp.w	r3, #524288	@ 0x80000
 8103254:	f040 80d8 	bne.w	8103408 <HAL_SAI_Init+0x2fc>
 8103258:	2a04      	cmp	r2, #4
 810325a:	f000 80b7 	beq.w	81033cc <HAL_SAI_Init+0x2c0>
 810325e:	2a08      	cmp	r2, #8
 8103260:	f000 80b6 	beq.w	81033d0 <HAL_SAI_Init+0x2c4>
 8103264:	6d63      	ldr	r3, [r4, #84]	@ 0x54
 8103266:	210a      	movs	r1, #10
 8103268:	4341      	muls	r1, r0
 810326a:	4373      	muls	r3, r6
 810326c:	fbb1 f0f3 	udiv	r0, r1, r3
 8103270:	210a      	movs	r1, #10
 8103272:	fbb0 f3f1 	udiv	r3, r0, r1
 8103276:	fb01 0013 	mls	r0, r1, r3, r0
 810327a:	2809      	cmp	r0, #9
 810327c:	bf08      	it	eq
 810327e:	3301      	addeq	r3, #1
 8103280:	2a04      	cmp	r2, #4
 8103282:	6263      	str	r3, [r4, #36]	@ 0x24
 8103284:	bf04      	itt	eq
 8103286:	085b      	lsreq	r3, r3, #1
 8103288:	6263      	streq	r3, [r4, #36]	@ 0x24
 810328a:	6863      	ldr	r3, [r4, #4]
 810328c:	6d26      	ldr	r6, [r4, #80]	@ 0x50
 810328e:	f033 0302 	bics.w	r3, r3, #2
 8103292:	f040 80c6 	bne.w	8103422 <HAL_SAI_Init+0x316>
 8103296:	3e01      	subs	r6, #1
 8103298:	bf18      	it	ne
 810329a:	2601      	movne	r6, #1
 810329c:	f7fe f8ac 	bl	81013f8 <HAL_GetREVID>
 81032a0:	e9d4 3e00 	ldrd	r3, lr, [r4]
 81032a4:	f5b0 5f00 	cmp.w	r0, #8192	@ 0x2000
 81032a8:	6c62      	ldr	r2, [r4, #68]	@ 0x44
 81032aa:	69a1      	ldr	r1, [r4, #24]
 81032ac:	6aa0      	ldr	r0, [r4, #40]	@ 0x28
 81032ae:	f8d3 a000 	ldr.w	sl, [r3]
 81032b2:	ea4f 2646 	mov.w	r6, r6, lsl #9
 81032b6:	f0c0 80b8 	bcc.w	810342a <HAL_SAI_Init+0x31e>
 81032ba:	ea4e 0e02 	orr.w	lr, lr, r2
 81032be:	6ca2      	ldr	r2, [r4, #72]	@ 0x48
 81032c0:	f8df c140 	ldr.w	ip, [pc, #320]	@ 8103404 <HAL_SAI_Init+0x2f8>
 81032c4:	ea4e 0e02 	orr.w	lr, lr, r2
 81032c8:	6ce2      	ldr	r2, [r4, #76]	@ 0x4c
 81032ca:	ea4e 0e02 	orr.w	lr, lr, r2
 81032ce:	6ae2      	ldr	r2, [r4, #44]	@ 0x2c
 81032d0:	ea4e 0e02 	orr.w	lr, lr, r2
 81032d4:	6962      	ldr	r2, [r4, #20]
 81032d6:	ea4e 0202 	orr.w	r2, lr, r2
 81032da:	ea0a 0c0c 	and.w	ip, sl, ip
 81032de:	430a      	orrs	r2, r1
 81032e0:	ea42 0100 	orr.w	r1, r2, r0
 81032e4:	f8c3 c000 	str.w	ip, [r3]
 81032e8:	6922      	ldr	r2, [r4, #16]
 81032ea:	f8d3 c000 	ldr.w	ip, [r3]
 81032ee:	430a      	orrs	r2, r1
 81032f0:	6a61      	ldr	r1, [r4, #36]	@ 0x24
 81032f2:	ea42 020c 	orr.w	r2, r2, ip
 81032f6:	ea42 5201 	orr.w	r2, r2, r1, lsl #20
 81032fa:	433a      	orrs	r2, r7
 81032fc:	4332      	orrs	r2, r6
 81032fe:	601a      	str	r2, [r3, #0]
 8103300:	685a      	ldr	r2, [r3, #4]
 8103302:	6b20      	ldr	r0, [r4, #48]	@ 0x30
 8103304:	f422 4260 	bic.w	r2, r2, #57344	@ 0xe000
 8103308:	f022 020f 	bic.w	r2, r2, #15
 810330c:	605a      	str	r2, [r3, #4]
 810330e:	69e2      	ldr	r2, [r4, #28]
 8103310:	6859      	ldr	r1, [r3, #4]
 8103312:	4302      	orrs	r2, r0
 8103314:	6b60      	ldr	r0, [r4, #52]	@ 0x34
 8103316:	4302      	orrs	r2, r0
 8103318:	430a      	orrs	r2, r1
 810331a:	605a      	str	r2, [r3, #4]
 810331c:	6899      	ldr	r1, [r3, #8]
 810331e:	4a37      	ldr	r2, [pc, #220]	@ (81033fc <HAL_SAI_Init+0x2f0>)
 8103320:	6de0      	ldr	r0, [r4, #92]	@ 0x5c
 8103322:	400a      	ands	r2, r1
 8103324:	609a      	str	r2, [r3, #8]
 8103326:	6e62      	ldr	r2, [r4, #100]	@ 0x64
 8103328:	6899      	ldr	r1, [r3, #8]
 810332a:	4302      	orrs	r2, r0
 810332c:	6e20      	ldr	r0, [r4, #96]	@ 0x60
 810332e:	4302      	orrs	r2, r0
 8103330:	430a      	orrs	r2, r1
 8103332:	6d61      	ldr	r1, [r4, #84]	@ 0x54
 8103334:	3901      	subs	r1, #1
 8103336:	430a      	orrs	r2, r1
 8103338:	6da1      	ldr	r1, [r4, #88]	@ 0x58
 810333a:	3901      	subs	r1, #1
 810333c:	ea42 2201 	orr.w	r2, r2, r1, lsl #8
 8103340:	609a      	str	r2, [r3, #8]
 8103342:	68da      	ldr	r2, [r3, #12]
 8103344:	f422 627d 	bic.w	r2, r2, #4048	@ 0xfd0
 8103348:	f022 020f 	bic.w	r2, r2, #15
 810334c:	0412      	lsls	r2, r2, #16
 810334e:	0c12      	lsrs	r2, r2, #16
 8103350:	60da      	str	r2, [r3, #12]
 8103352:	e9d4 201a 	ldrd	r2, r0, [r4, #104]	@ 0x68
 8103356:	68d9      	ldr	r1, [r3, #12]
 8103358:	4302      	orrs	r2, r0
 810335a:	430a      	orrs	r2, r1
 810335c:	6f61      	ldr	r1, [r4, #116]	@ 0x74
 810335e:	ea42 4201 	orr.w	r2, r2, r1, lsl #16
 8103362:	6f21      	ldr	r1, [r4, #112]	@ 0x70
 8103364:	3901      	subs	r1, #1
 8103366:	ea42 2201 	orr.w	r2, r2, r1, lsl #8
 810336a:	454b      	cmp	r3, r9
 810336c:	60da      	str	r2, [r3, #12]
 810336e:	d002      	beq.n	8103376 <HAL_SAI_Init+0x26a>
 8103370:	4a19      	ldr	r2, [pc, #100]	@ (81033d8 <HAL_SAI_Init+0x2cc>)
 8103372:	4293      	cmp	r3, r2
 8103374:	d111      	bne.n	810339a <HAL_SAI_Init+0x28e>
 8103376:	6c6b      	ldr	r3, [r5, #68]	@ 0x44
 8103378:	f023 0301 	bic.w	r3, r3, #1
 810337c:	646b      	str	r3, [r5, #68]	@ 0x44
 810337e:	f894 3038 	ldrb.w	r3, [r4, #56]	@ 0x38
 8103382:	2b01      	cmp	r3, #1
 8103384:	d109      	bne.n	810339a <HAL_SAI_Init+0x28e>
 8103386:	6be3      	ldr	r3, [r4, #60]	@ 0x3c
 8103388:	1e5a      	subs	r2, r3, #1
 810338a:	6c23      	ldr	r3, [r4, #64]	@ 0x40
 810338c:	ea43 1302 	orr.w	r3, r3, r2, lsl #4
 8103390:	646b      	str	r3, [r5, #68]	@ 0x44
 8103392:	6c6b      	ldr	r3, [r5, #68]	@ 0x44
 8103394:	f043 0301 	orr.w	r3, r3, #1
 8103398:	646b      	str	r3, [r5, #68]	@ 0x44
 810339a:	2300      	movs	r3, #0
 810339c:	2201      	movs	r2, #1
 810339e:	f8c4 3094 	str.w	r3, [r4, #148]	@ 0x94
 81033a2:	f884 3090 	strb.w	r3, [r4, #144]	@ 0x90
 81033a6:	f884 2091 	strb.w	r2, [r4, #145]	@ 0x91
 81033aa:	e6b5      	b.n	8103118 <HAL_SAI_Init+0xc>
 81033ac:	f043 0301 	orr.w	r3, r3, #1
 81033b0:	f44f 6700 	mov.w	r7, #2048	@ 0x800
 81033b4:	e70f      	b.n	81031d6 <HAL_SAI_Init+0xca>
 81033b6:	f043 0302 	orr.w	r3, r3, #2
 81033ba:	e7f9      	b.n	81033b0 <HAL_SAI_Init+0x2a4>
 81033bc:	f043 0303 	orr.w	r3, r3, #3
 81033c0:	e7f6      	b.n	81033b0 <HAL_SAI_Init+0x2a4>
 81033c2:	f44f 6780 	mov.w	r7, #1024	@ 0x400
 81033c6:	e706      	b.n	81031d6 <HAL_SAI_Init+0xca>
 81033c8:	2000      	movs	r0, #0
 81033ca:	e714      	b.n	81031f6 <HAL_SAI_Init+0xea>
 81033cc:	2340      	movs	r3, #64	@ 0x40
 81033ce:	e74a      	b.n	8103266 <HAL_SAI_Init+0x15a>
 81033d0:	f44f 7380 	mov.w	r3, #256	@ 0x100
 81033d4:	e747      	b.n	8103266 <HAL_SAI_Init+0x15a>
 81033d6:	bf00      	nop
 81033d8:	58005404 	.word	0x58005404
 81033dc:	40015824 	.word	0x40015824
 81033e0:	58005400 	.word	0x58005400
 81033e4:	40015800 	.word	0x40015800
 81033e8:	40015c00 	.word	0x40015c00
 81033ec:	40016000 	.word	0x40016000
 81033f0:	40015c04 	.word	0x40015c04
 81033f4:	40016004 	.word	0x40016004
 81033f8:	58005424 	.word	0x58005424
 81033fc:	fff88000 	.word	0xfff88000
 8103400:	40015804 	.word	0x40015804
 8103404:	f005c010 	.word	0xf005c010
 8103408:	6aa3      	ldr	r3, [r4, #40]	@ 0x28
 810340a:	f1b3 6f80 	cmp.w	r3, #67108864	@ 0x4000000
 810340e:	bf14      	ite	ne
 8103410:	2301      	movne	r3, #1
 8103412:	2302      	moveq	r3, #2
 8103414:	210a      	movs	r1, #10
 8103416:	4373      	muls	r3, r6
 8103418:	4348      	muls	r0, r1
 810341a:	021b      	lsls	r3, r3, #8
 810341c:	fbb0 f0f3 	udiv	r0, r0, r3
 8103420:	e726      	b.n	8103270 <HAL_SAI_Init+0x164>
 8103422:	1e73      	subs	r3, r6, #1
 8103424:	425e      	negs	r6, r3
 8103426:	415e      	adcs	r6, r3
 8103428:	e738      	b.n	810329c <HAL_SAI_Init+0x190>
 810342a:	ea4e 0e02 	orr.w	lr, lr, r2
 810342e:	6ca2      	ldr	r2, [r4, #72]	@ 0x48
 8103430:	f8df c028 	ldr.w	ip, [pc, #40]	@ 810345c <HAL_SAI_Init+0x350>
 8103434:	ea4e 0e02 	orr.w	lr, lr, r2
 8103438:	6ce2      	ldr	r2, [r4, #76]	@ 0x4c
 810343a:	ea4e 0e02 	orr.w	lr, lr, r2
 810343e:	6ae2      	ldr	r2, [r4, #44]	@ 0x2c
 8103440:	ea4e 0e02 	orr.w	lr, lr, r2
 8103444:	6962      	ldr	r2, [r4, #20]
 8103446:	ea0a 0c0c 	and.w	ip, sl, ip
 810344a:	ea4e 0202 	orr.w	r2, lr, r2
 810344e:	f8c3 c000 	str.w	ip, [r3]
 8103452:	430a      	orrs	r2, r1
 8103454:	f8d3 c000 	ldr.w	ip, [r3]
 8103458:	4302      	orrs	r2, r0
 810345a:	e749      	b.n	81032f0 <HAL_SAI_Init+0x1e4>
 810345c:	f805c010 	.word	0xf805c010

08103460 <HAL_SPDIFRX_Init>:
 8103460:	b510      	push	{r4, lr}
 8103462:	4604      	mov	r4, r0
 8103464:	2800      	cmp	r0, #0
 8103466:	d03a      	beq.n	81034de <HAL_SPDIFRX_Init+0x7e>
 8103468:	f890 3049 	ldrb.w	r3, [r0, #73]	@ 0x49
 810346c:	f003 02ff 	and.w	r2, r3, #255	@ 0xff
 8103470:	b91b      	cbnz	r3, 810347a <HAL_SPDIFRX_Init+0x1a>
 8103472:	f880 2048 	strb.w	r2, [r0, #72]	@ 0x48
 8103476:	f7fd fb8d 	bl	8100b94 <HAL_SPDIFRX_MspInit>
 810347a:	6822      	ldr	r2, [r4, #0]
 810347c:	4919      	ldr	r1, [pc, #100]	@ (81034e4 <HAL_SPDIFRX_Init+0x84>)
 810347e:	6860      	ldr	r0, [r4, #4]
 8103480:	2302      	movs	r3, #2
 8103482:	f884 3049 	strb.w	r3, [r4, #73]	@ 0x49
 8103486:	6813      	ldr	r3, [r2, #0]
 8103488:	f023 0303 	bic.w	r3, r3, #3
 810348c:	6013      	str	r3, [r2, #0]
 810348e:	6813      	ldr	r3, [r2, #0]
 8103490:	4019      	ands	r1, r3
 8103492:	69a3      	ldr	r3, [r4, #24]
 8103494:	4303      	orrs	r3, r0
 8103496:	68a0      	ldr	r0, [r4, #8]
 8103498:	4303      	orrs	r3, r0
 810349a:	68e0      	ldr	r0, [r4, #12]
 810349c:	4303      	orrs	r3, r0
 810349e:	6920      	ldr	r0, [r4, #16]
 81034a0:	4303      	orrs	r3, r0
 81034a2:	6960      	ldr	r0, [r4, #20]
 81034a4:	4303      	orrs	r3, r0
 81034a6:	69e0      	ldr	r0, [r4, #28]
 81034a8:	4303      	orrs	r3, r0
 81034aa:	6a20      	ldr	r0, [r4, #32]
 81034ac:	4303      	orrs	r3, r0
 81034ae:	6a60      	ldr	r0, [r4, #36]	@ 0x24
 81034b0:	4303      	orrs	r3, r0
 81034b2:	6aa0      	ldr	r0, [r4, #40]	@ 0x28
 81034b4:	4303      	orrs	r3, r0
 81034b6:	430b      	orrs	r3, r1
 81034b8:	f894 102c 	ldrb.w	r1, [r4, #44]	@ 0x2c
 81034bc:	2901      	cmp	r1, #1
 81034be:	f894 102d 	ldrb.w	r1, [r4, #45]	@ 0x2d
 81034c2:	bf08      	it	eq
 81034c4:	f443 1380 	orreq.w	r3, r3, #1048576	@ 0x100000
 81034c8:	2901      	cmp	r1, #1
 81034ca:	bf08      	it	eq
 81034cc:	f443 1300 	orreq.w	r3, r3, #2097152	@ 0x200000
 81034d0:	6013      	str	r3, [r2, #0]
 81034d2:	2000      	movs	r0, #0
 81034d4:	2301      	movs	r3, #1
 81034d6:	64e0      	str	r0, [r4, #76]	@ 0x4c
 81034d8:	f884 3049 	strb.w	r3, [r4, #73]	@ 0x49
 81034dc:	bd10      	pop	{r4, pc}
 81034de:	2001      	movs	r0, #1
 81034e0:	e7fc      	b.n	81034dc <HAL_SPDIFRX_Init+0x7c>
 81034e2:	bf00      	nop
 81034e4:	ffc88407 	.word	0xffc88407

081034e8 <HAL_SPI_Init>:
 81034e8:	b5f8      	push	{r3, r4, r5, r6, r7, lr}
 81034ea:	4604      	mov	r4, r0
 81034ec:	b908      	cbnz	r0, 81034f2 <HAL_SPI_Init+0xa>
 81034ee:	2001      	movs	r0, #1
 81034f0:	bdf8      	pop	{r3, r4, r5, r6, r7, pc}
 81034f2:	6802      	ldr	r2, [r0, #0]
 81034f4:	494d      	ldr	r1, [pc, #308]	@ (810362c <HAL_SPI_Init+0x144>)
 81034f6:	2300      	movs	r3, #0
 81034f8:	428a      	cmp	r2, r1
 81034fa:	6283      	str	r3, [r0, #40]	@ 0x28
 81034fc:	68c3      	ldr	r3, [r0, #12]
 81034fe:	d009      	beq.n	8103514 <HAL_SPI_Init+0x2c>
 8103500:	f5a1 4178 	sub.w	r1, r1, #63488	@ 0xf800
 8103504:	428a      	cmp	r2, r1
 8103506:	d005      	beq.n	8103514 <HAL_SPI_Init+0x2c>
 8103508:	f501 6180 	add.w	r1, r1, #1024	@ 0x400
 810350c:	428a      	cmp	r2, r1
 810350e:	d001      	beq.n	8103514 <HAL_SPI_Init+0x2c>
 8103510:	2b0f      	cmp	r3, #15
 8103512:	d8ec      	bhi.n	81034ee <HAL_SPI_Init+0x6>
 8103514:	6be1      	ldr	r1, [r4, #60]	@ 0x3c
 8103516:	3308      	adds	r3, #8
 8103518:	0949      	lsrs	r1, r1, #5
 810351a:	08db      	lsrs	r3, r3, #3
 810351c:	fb01 3303 	mla	r3, r1, r3, r3
 8103520:	4942      	ldr	r1, [pc, #264]	@ (810362c <HAL_SPI_Init+0x144>)
 8103522:	428a      	cmp	r2, r1
 8103524:	d073      	beq.n	810360e <HAL_SPI_Init+0x126>
 8103526:	f5a1 4178 	sub.w	r1, r1, #63488	@ 0xf800
 810352a:	428a      	cmp	r2, r1
 810352c:	d06f      	beq.n	810360e <HAL_SPI_Init+0x126>
 810352e:	f501 6180 	add.w	r1, r1, #1024	@ 0x400
 8103532:	428a      	cmp	r2, r1
 8103534:	d06b      	beq.n	810360e <HAL_SPI_Init+0x126>
 8103536:	2b08      	cmp	r3, #8
 8103538:	d8d9      	bhi.n	81034ee <HAL_SPI_Init+0x6>
 810353a:	f894 3081 	ldrb.w	r3, [r4, #129]	@ 0x81
 810353e:	f003 02ff 	and.w	r2, r3, #255	@ 0xff
 8103542:	b923      	cbnz	r3, 810354e <HAL_SPI_Init+0x66>
 8103544:	f884 2080 	strb.w	r2, [r4, #128]	@ 0x80
 8103548:	4620      	mov	r0, r4
 810354a:	f7fd fb6b 	bl	8100c24 <HAL_SPI_MspInit>
 810354e:	6822      	ldr	r2, [r4, #0]
 8103550:	6861      	ldr	r1, [r4, #4]
 8103552:	6ba6      	ldr	r6, [r4, #56]	@ 0x38
 8103554:	2302      	movs	r3, #2
 8103556:	f884 3081 	strb.w	r3, [r4, #129]	@ 0x81
 810355a:	6813      	ldr	r3, [r2, #0]
 810355c:	f023 0301 	bic.w	r3, r3, #1
 8103560:	6013      	str	r3, [r2, #0]
 8103562:	6893      	ldr	r3, [r2, #8]
 8103564:	f403 1cf8 	and.w	ip, r3, #2031616	@ 0x1f0000
 8103568:	69a3      	ldr	r3, [r4, #24]
 810356a:	f1b3 6f80 	cmp.w	r3, #67108864	@ 0x4000000
 810356e:	d104      	bne.n	810357a <HAL_SPI_Init+0x92>
 8103570:	f5b1 0f80 	cmp.w	r1, #4194304	@ 0x400000
 8103574:	d14d      	bne.n	8103612 <HAL_SPI_Init+0x12a>
 8103576:	2e00      	cmp	r6, #0
 8103578:	d050      	beq.n	810361c <HAL_SPI_Init+0x134>
 810357a:	f411 0080 	ands.w	r0, r1, #4194304	@ 0x400000
 810357e:	68e5      	ldr	r5, [r4, #12]
 8103580:	6817      	ldr	r7, [r2, #0]
 8103582:	d050      	beq.n	8103626 <HAL_SPI_Init+0x13e>
 8103584:	2d06      	cmp	r5, #6
 8103586:	d94e      	bls.n	8103626 <HAL_SPI_Init+0x13e>
 8103588:	f427 7e80 	bic.w	lr, r7, #256	@ 0x100
 810358c:	6d27      	ldr	r7, [r4, #80]	@ 0x50
 810358e:	ea4e 0707 	orr.w	r7, lr, r7
 8103592:	6017      	str	r7, [r2, #0]
 8103594:	69e7      	ldr	r7, [r4, #28]
 8103596:	433d      	orrs	r5, r7
 8103598:	6aa7      	ldr	r7, [r4, #40]	@ 0x28
 810359a:	433d      	orrs	r5, r7
 810359c:	6be7      	ldr	r7, [r4, #60]	@ 0x3c
 810359e:	433d      	orrs	r5, r7
 81035a0:	ea45 050c 	orr.w	r5, r5, ip
 81035a4:	6095      	str	r5, [r2, #8]
 81035a6:	430b      	orrs	r3, r1
 81035a8:	6b65      	ldr	r5, [r4, #52]	@ 0x34
 81035aa:	4333      	orrs	r3, r6
 81035ac:	432b      	orrs	r3, r5
 81035ae:	6a65      	ldr	r5, [r4, #36]	@ 0x24
 81035b0:	432b      	orrs	r3, r5
 81035b2:	6925      	ldr	r5, [r4, #16]
 81035b4:	432b      	orrs	r3, r5
 81035b6:	6965      	ldr	r5, [r4, #20]
 81035b8:	432b      	orrs	r3, r5
 81035ba:	6a25      	ldr	r5, [r4, #32]
 81035bc:	432b      	orrs	r3, r5
 81035be:	6ce5      	ldr	r5, [r4, #76]	@ 0x4c
 81035c0:	432b      	orrs	r3, r5
 81035c2:	68a5      	ldr	r5, [r4, #8]
 81035c4:	432b      	orrs	r3, r5
 81035c6:	6ca5      	ldr	r5, [r4, #72]	@ 0x48
 81035c8:	432b      	orrs	r3, r5
 81035ca:	6da5      	ldr	r5, [r4, #88]	@ 0x58
 81035cc:	432b      	orrs	r3, r5
 81035ce:	60d3      	str	r3, [r2, #12]
 81035d0:	b959      	cbnz	r1, 81035ea <HAL_SPI_Init+0x102>
 81035d2:	6893      	ldr	r3, [r2, #8]
 81035d4:	f423 53c0 	bic.w	r3, r3, #6144	@ 0x1800
 81035d8:	f443 6300 	orr.w	r3, r3, #2048	@ 0x800
 81035dc:	6093      	str	r3, [r2, #8]
 81035de:	6893      	ldr	r3, [r2, #8]
 81035e0:	f423 63c0 	bic.w	r3, r3, #1536	@ 0x600
 81035e4:	f443 6380 	orr.w	r3, r3, #1024	@ 0x400
 81035e8:	6093      	str	r3, [r2, #8]
 81035ea:	6d13      	ldr	r3, [r2, #80]	@ 0x50
 81035ec:	f023 0301 	bic.w	r3, r3, #1
 81035f0:	6513      	str	r3, [r2, #80]	@ 0x50
 81035f2:	b128      	cbz	r0, 8103600 <HAL_SPI_Init+0x118>
 81035f4:	68d3      	ldr	r3, [r2, #12]
 81035f6:	6d61      	ldr	r1, [r4, #84]	@ 0x54
 81035f8:	f023 4300 	bic.w	r3, r3, #2147483648	@ 0x80000000
 81035fc:	430b      	orrs	r3, r1
 81035fe:	60d3      	str	r3, [r2, #12]
 8103600:	2000      	movs	r0, #0
 8103602:	2301      	movs	r3, #1
 8103604:	f8c4 0084 	str.w	r0, [r4, #132]	@ 0x84
 8103608:	f884 3081 	strb.w	r3, [r4, #129]	@ 0x81
 810360c:	e770      	b.n	81034f0 <HAL_SPI_Init+0x8>
 810360e:	2b10      	cmp	r3, #16
 8103610:	e792      	b.n	8103538 <HAL_SPI_Init+0x50>
 8103612:	2900      	cmp	r1, #0
 8103614:	d1b1      	bne.n	810357a <HAL_SPI_Init+0x92>
 8103616:	f1b6 5f80 	cmp.w	r6, #268435456	@ 0x10000000
 810361a:	d1ae      	bne.n	810357a <HAL_SPI_Init+0x92>
 810361c:	6810      	ldr	r0, [r2, #0]
 810361e:	f440 5080 	orr.w	r0, r0, #4096	@ 0x1000
 8103622:	6010      	str	r0, [r2, #0]
 8103624:	e7a9      	b.n	810357a <HAL_SPI_Init+0x92>
 8103626:	f427 7780 	bic.w	r7, r7, #256	@ 0x100
 810362a:	e7b2      	b.n	8103592 <HAL_SPI_Init+0xaa>
 810362c:	40013000 	.word	0x40013000

08103630 <TIM_OC1_SetConfig>:
 8103630:	6a03      	ldr	r3, [r0, #32]
 8103632:	6a02      	ldr	r2, [r0, #32]
 8103634:	f022 0201 	bic.w	r2, r2, #1
 8103638:	b570      	push	{r4, r5, r6, lr}
 810363a:	6202      	str	r2, [r0, #32]
 810363c:	6844      	ldr	r4, [r0, #4]
 810363e:	6982      	ldr	r2, [r0, #24]
 8103640:	680d      	ldr	r5, [r1, #0]
 8103642:	f422 3280 	bic.w	r2, r2, #65536	@ 0x10000
 8103646:	f022 0273 	bic.w	r2, r2, #115	@ 0x73
 810364a:	432a      	orrs	r2, r5
 810364c:	688d      	ldr	r5, [r1, #8]
 810364e:	f023 0302 	bic.w	r3, r3, #2
 8103652:	432b      	orrs	r3, r5
 8103654:	4d12      	ldr	r5, [pc, #72]	@ (81036a0 <TIM_OC1_SetConfig+0x70>)
 8103656:	42a8      	cmp	r0, r5
 8103658:	d00f      	beq.n	810367a <TIM_OC1_SetConfig+0x4a>
 810365a:	f505 6580 	add.w	r5, r5, #1024	@ 0x400
 810365e:	42a8      	cmp	r0, r5
 8103660:	d00b      	beq.n	810367a <TIM_OC1_SetConfig+0x4a>
 8103662:	f505 5570 	add.w	r5, r5, #15360	@ 0x3c00
 8103666:	42a8      	cmp	r0, r5
 8103668:	d007      	beq.n	810367a <TIM_OC1_SetConfig+0x4a>
 810366a:	f505 6580 	add.w	r5, r5, #1024	@ 0x400
 810366e:	42a8      	cmp	r0, r5
 8103670:	d003      	beq.n	810367a <TIM_OC1_SetConfig+0x4a>
 8103672:	f505 6580 	add.w	r5, r5, #1024	@ 0x400
 8103676:	42a8      	cmp	r0, r5
 8103678:	d10b      	bne.n	8103692 <TIM_OC1_SetConfig+0x62>
 810367a:	68cd      	ldr	r5, [r1, #12]
 810367c:	f023 0308 	bic.w	r3, r3, #8
 8103680:	432b      	orrs	r3, r5
 8103682:	f424 7540 	bic.w	r5, r4, #768	@ 0x300
 8103686:	e9d1 4605 	ldrd	r4, r6, [r1, #20]
 810368a:	4334      	orrs	r4, r6
 810368c:	f023 0304 	bic.w	r3, r3, #4
 8103690:	432c      	orrs	r4, r5
 8103692:	6044      	str	r4, [r0, #4]
 8103694:	6182      	str	r2, [r0, #24]
 8103696:	684a      	ldr	r2, [r1, #4]
 8103698:	6342      	str	r2, [r0, #52]	@ 0x34
 810369a:	6203      	str	r3, [r0, #32]
 810369c:	bd70      	pop	{r4, r5, r6, pc}
 810369e:	bf00      	nop
 81036a0:	40010000 	.word	0x40010000

081036a4 <TIM_OC3_SetConfig>:
 81036a4:	6a03      	ldr	r3, [r0, #32]
 81036a6:	6a02      	ldr	r2, [r0, #32]
 81036a8:	f422 7280 	bic.w	r2, r2, #256	@ 0x100
 81036ac:	b570      	push	{r4, r5, r6, lr}
 81036ae:	6202      	str	r2, [r0, #32]
 81036b0:	6844      	ldr	r4, [r0, #4]
 81036b2:	69c2      	ldr	r2, [r0, #28]
 81036b4:	680d      	ldr	r5, [r1, #0]
 81036b6:	f422 3280 	bic.w	r2, r2, #65536	@ 0x10000
 81036ba:	f022 0273 	bic.w	r2, r2, #115	@ 0x73
 81036be:	432a      	orrs	r2, r5
 81036c0:	688d      	ldr	r5, [r1, #8]
 81036c2:	f423 7300 	bic.w	r3, r3, #512	@ 0x200
 81036c6:	ea43 2305 	orr.w	r3, r3, r5, lsl #8
 81036ca:	4d14      	ldr	r5, [pc, #80]	@ (810371c <TIM_OC3_SetConfig+0x78>)
 81036cc:	42a8      	cmp	r0, r5
 81036ce:	d00f      	beq.n	81036f0 <TIM_OC3_SetConfig+0x4c>
 81036d0:	f505 6580 	add.w	r5, r5, #1024	@ 0x400
 81036d4:	42a8      	cmp	r0, r5
 81036d6:	d00b      	beq.n	81036f0 <TIM_OC3_SetConfig+0x4c>
 81036d8:	f505 5570 	add.w	r5, r5, #15360	@ 0x3c00
 81036dc:	42a8      	cmp	r0, r5
 81036de:	d10f      	bne.n	8103700 <TIM_OC3_SetConfig+0x5c>
 81036e0:	f424 5540 	bic.w	r5, r4, #12288	@ 0x3000
 81036e4:	e9d1 4605 	ldrd	r4, r6, [r1, #20]
 81036e8:	4334      	orrs	r4, r6
 81036ea:	ea45 1404 	orr.w	r4, r5, r4, lsl #4
 81036ee:	e00e      	b.n	810370e <TIM_OC3_SetConfig+0x6a>
 81036f0:	68cd      	ldr	r5, [r1, #12]
 81036f2:	f423 6300 	bic.w	r3, r3, #2048	@ 0x800
 81036f6:	ea43 2305 	orr.w	r3, r3, r5, lsl #8
 81036fa:	f423 6380 	bic.w	r3, r3, #1024	@ 0x400
 81036fe:	e7ef      	b.n	81036e0 <TIM_OC3_SetConfig+0x3c>
 8103700:	4d07      	ldr	r5, [pc, #28]	@ (8103720 <TIM_OC3_SetConfig+0x7c>)
 8103702:	42a8      	cmp	r0, r5
 8103704:	d0ec      	beq.n	81036e0 <TIM_OC3_SetConfig+0x3c>
 8103706:	f505 6580 	add.w	r5, r5, #1024	@ 0x400
 810370a:	42a8      	cmp	r0, r5
 810370c:	d0e8      	beq.n	81036e0 <TIM_OC3_SetConfig+0x3c>
 810370e:	6044      	str	r4, [r0, #4]
 8103710:	61c2      	str	r2, [r0, #28]
 8103712:	684a      	ldr	r2, [r1, #4]
 8103714:	63c2      	str	r2, [r0, #60]	@ 0x3c
 8103716:	6203      	str	r3, [r0, #32]
 8103718:	bd70      	pop	{r4, r5, r6, pc}
 810371a:	bf00      	nop
 810371c:	40010000 	.word	0x40010000
 8103720:	40014400 	.word	0x40014400

08103724 <TIM_OC4_SetConfig>:
 8103724:	6a03      	ldr	r3, [r0, #32]
 8103726:	6a02      	ldr	r2, [r0, #32]
 8103728:	f422 5280 	bic.w	r2, r2, #4096	@ 0x1000
 810372c:	b530      	push	{r4, r5, lr}
 810372e:	6202      	str	r2, [r0, #32]
 8103730:	6844      	ldr	r4, [r0, #4]
 8103732:	69c2      	ldr	r2, [r0, #28]
 8103734:	680d      	ldr	r5, [r1, #0]
 8103736:	f022 7280 	bic.w	r2, r2, #16777216	@ 0x1000000
 810373a:	f422 42e6 	bic.w	r2, r2, #29440	@ 0x7300
 810373e:	ea42 2205 	orr.w	r2, r2, r5, lsl #8
 8103742:	688d      	ldr	r5, [r1, #8]
 8103744:	f423 5300 	bic.w	r3, r3, #8192	@ 0x2000
 8103748:	ea43 3305 	orr.w	r3, r3, r5, lsl #12
 810374c:	4d0e      	ldr	r5, [pc, #56]	@ (8103788 <TIM_OC4_SetConfig+0x64>)
 810374e:	42a8      	cmp	r0, r5
 8103750:	d00f      	beq.n	8103772 <TIM_OC4_SetConfig+0x4e>
 8103752:	f505 6580 	add.w	r5, r5, #1024	@ 0x400
 8103756:	42a8      	cmp	r0, r5
 8103758:	d00b      	beq.n	8103772 <TIM_OC4_SetConfig+0x4e>
 810375a:	f505 5570 	add.w	r5, r5, #15360	@ 0x3c00
 810375e:	42a8      	cmp	r0, r5
 8103760:	d007      	beq.n	8103772 <TIM_OC4_SetConfig+0x4e>
 8103762:	f505 6580 	add.w	r5, r5, #1024	@ 0x400
 8103766:	42a8      	cmp	r0, r5
 8103768:	d003      	beq.n	8103772 <TIM_OC4_SetConfig+0x4e>
 810376a:	f505 6580 	add.w	r5, r5, #1024	@ 0x400
 810376e:	42a8      	cmp	r0, r5
 8103770:	d104      	bne.n	810377c <TIM_OC4_SetConfig+0x58>
 8103772:	694d      	ldr	r5, [r1, #20]
 8103774:	f424 4480 	bic.w	r4, r4, #16384	@ 0x4000
 8103778:	ea44 1485 	orr.w	r4, r4, r5, lsl #6
 810377c:	6044      	str	r4, [r0, #4]
 810377e:	61c2      	str	r2, [r0, #28]
 8103780:	684a      	ldr	r2, [r1, #4]
 8103782:	6402      	str	r2, [r0, #64]	@ 0x40
 8103784:	6203      	str	r3, [r0, #32]
 8103786:	bd30      	pop	{r4, r5, pc}
 8103788:	40010000 	.word	0x40010000

0810378c <TIM_OC5_SetConfig>:
 810378c:	6a03      	ldr	r3, [r0, #32]
 810378e:	6a02      	ldr	r2, [r0, #32]
 8103790:	f422 3280 	bic.w	r2, r2, #65536	@ 0x10000
 8103794:	b530      	push	{r4, r5, lr}
 8103796:	6202      	str	r2, [r0, #32]
 8103798:	6844      	ldr	r4, [r0, #4]
 810379a:	6d42      	ldr	r2, [r0, #84]	@ 0x54
 810379c:	680d      	ldr	r5, [r1, #0]
 810379e:	f422 3280 	bic.w	r2, r2, #65536	@ 0x10000
 81037a2:	f022 0270 	bic.w	r2, r2, #112	@ 0x70
 81037a6:	432a      	orrs	r2, r5
 81037a8:	688d      	ldr	r5, [r1, #8]
 81037aa:	f423 3300 	bic.w	r3, r3, #131072	@ 0x20000
 81037ae:	ea43 4305 	orr.w	r3, r3, r5, lsl #16
 81037b2:	4d0f      	ldr	r5, [pc, #60]	@ (81037f0 <TIM_OC5_SetConfig+0x64>)
 81037b4:	42a8      	cmp	r0, r5
 81037b6:	d00f      	beq.n	81037d8 <TIM_OC5_SetConfig+0x4c>
 81037b8:	f505 6580 	add.w	r5, r5, #1024	@ 0x400
 81037bc:	42a8      	cmp	r0, r5
 81037be:	d00b      	beq.n	81037d8 <TIM_OC5_SetConfig+0x4c>
 81037c0:	f505 5570 	add.w	r5, r5, #15360	@ 0x3c00
 81037c4:	42a8      	cmp	r0, r5
 81037c6:	d007      	beq.n	81037d8 <TIM_OC5_SetConfig+0x4c>
 81037c8:	f505 6580 	add.w	r5, r5, #1024	@ 0x400
 81037cc:	42a8      	cmp	r0, r5
 81037ce:	d003      	beq.n	81037d8 <TIM_OC5_SetConfig+0x4c>
 81037d0:	f505 6580 	add.w	r5, r5, #1024	@ 0x400
 81037d4:	42a8      	cmp	r0, r5
 81037d6:	d104      	bne.n	81037e2 <TIM_OC5_SetConfig+0x56>
 81037d8:	694d      	ldr	r5, [r1, #20]
 81037da:	f424 3480 	bic.w	r4, r4, #65536	@ 0x10000
 81037de:	ea44 2405 	orr.w	r4, r4, r5, lsl #8
 81037e2:	6044      	str	r4, [r0, #4]
 81037e4:	6542      	str	r2, [r0, #84]	@ 0x54
 81037e6:	684a      	ldr	r2, [r1, #4]
 81037e8:	6582      	str	r2, [r0, #88]	@ 0x58
 81037ea:	6203      	str	r3, [r0, #32]
 81037ec:	bd30      	pop	{r4, r5, pc}
 81037ee:	bf00      	nop
 81037f0:	40010000 	.word	0x40010000

081037f4 <TIM_OC6_SetConfig>:
 81037f4:	6a03      	ldr	r3, [r0, #32]
 81037f6:	6a02      	ldr	r2, [r0, #32]
 81037f8:	f422 1280 	bic.w	r2, r2, #1048576	@ 0x100000
 81037fc:	b530      	push	{r4, r5, lr}
 81037fe:	6202      	str	r2, [r0, #32]
 8103800:	6844      	ldr	r4, [r0, #4]
 8103802:	6d42      	ldr	r2, [r0, #84]	@ 0x54
 8103804:	680d      	ldr	r5, [r1, #0]
 8103806:	f022 7280 	bic.w	r2, r2, #16777216	@ 0x1000000
 810380a:	f422 42e0 	bic.w	r2, r2, #28672	@ 0x7000
 810380e:	ea42 2205 	orr.w	r2, r2, r5, lsl #8
 8103812:	688d      	ldr	r5, [r1, #8]
 8103814:	f423 1300 	bic.w	r3, r3, #2097152	@ 0x200000
 8103818:	ea43 5305 	orr.w	r3, r3, r5, lsl #20
 810381c:	4d0e      	ldr	r5, [pc, #56]	@ (8103858 <TIM_OC6_SetConfig+0x64>)
 810381e:	42a8      	cmp	r0, r5
 8103820:	d00f      	beq.n	8103842 <TIM_OC6_SetConfig+0x4e>
 8103822:	f505 6580 	add.w	r5, r5, #1024	@ 0x400
 8103826:	42a8      	cmp	r0, r5
 8103828:	d00b      	beq.n	8103842 <TIM_OC6_SetConfig+0x4e>
 810382a:	f505 5570 	add.w	r5, r5, #15360	@ 0x3c00
 810382e:	42a8      	cmp	r0, r5
 8103830:	d007      	beq.n	8103842 <TIM_OC6_SetConfig+0x4e>
 8103832:	f505 6580 	add.w	r5, r5, #1024	@ 0x400
 8103836:	42a8      	cmp	r0, r5
 8103838:	d003      	beq.n	8103842 <TIM_OC6_SetConfig+0x4e>
 810383a:	f505 6580 	add.w	r5, r5, #1024	@ 0x400
 810383e:	42a8      	cmp	r0, r5
 8103840:	d104      	bne.n	810384c <TIM_OC6_SetConfig+0x58>
 8103842:	694d      	ldr	r5, [r1, #20]
 8103844:	f424 2480 	bic.w	r4, r4, #262144	@ 0x40000
 8103848:	ea44 2485 	orr.w	r4, r4, r5, lsl #10
 810384c:	6044      	str	r4, [r0, #4]
 810384e:	6542      	str	r2, [r0, #84]	@ 0x54
 8103850:	684a      	ldr	r2, [r1, #4]
 8103852:	65c2      	str	r2, [r0, #92]	@ 0x5c
 8103854:	6203      	str	r3, [r0, #32]
 8103856:	bd30      	pop	{r4, r5, pc}
 8103858:	40010000 	.word	0x40010000

0810385c <HAL_TIM_Base_Start_IT>:
 810385c:	f890 303d 	ldrb.w	r3, [r0, #61]	@ 0x3d
 8103860:	2b01      	cmp	r3, #1
 8103862:	d133      	bne.n	81038cc <HAL_TIM_Base_Start_IT+0x70>
 8103864:	2302      	movs	r3, #2
 8103866:	f880 303d 	strb.w	r3, [r0, #61]	@ 0x3d
 810386a:	6803      	ldr	r3, [r0, #0]
 810386c:	68da      	ldr	r2, [r3, #12]
 810386e:	f042 0201 	orr.w	r2, r2, #1
 8103872:	60da      	str	r2, [r3, #12]
 8103874:	4a16      	ldr	r2, [pc, #88]	@ (81038d0 <HAL_TIM_Base_Start_IT+0x74>)
 8103876:	4293      	cmp	r3, r2
 8103878:	d01a      	beq.n	81038b0 <HAL_TIM_Base_Start_IT+0x54>
 810387a:	f1b3 4f80 	cmp.w	r3, #1073741824	@ 0x40000000
 810387e:	d017      	beq.n	81038b0 <HAL_TIM_Base_Start_IT+0x54>
 8103880:	f5a2 427c 	sub.w	r2, r2, #64512	@ 0xfc00
 8103884:	4293      	cmp	r3, r2
 8103886:	d013      	beq.n	81038b0 <HAL_TIM_Base_Start_IT+0x54>
 8103888:	f502 6280 	add.w	r2, r2, #1024	@ 0x400
 810388c:	4293      	cmp	r3, r2
 810388e:	d00f      	beq.n	81038b0 <HAL_TIM_Base_Start_IT+0x54>
 8103890:	f502 6280 	add.w	r2, r2, #1024	@ 0x400
 8103894:	4293      	cmp	r3, r2
 8103896:	d00b      	beq.n	81038b0 <HAL_TIM_Base_Start_IT+0x54>
 8103898:	f502 4278 	add.w	r2, r2, #63488	@ 0xf800
 810389c:	4293      	cmp	r3, r2
 810389e:	d007      	beq.n	81038b0 <HAL_TIM_Base_Start_IT+0x54>
 81038a0:	f5a2 426c 	sub.w	r2, r2, #60416	@ 0xec00
 81038a4:	4293      	cmp	r3, r2
 81038a6:	d003      	beq.n	81038b0 <HAL_TIM_Base_Start_IT+0x54>
 81038a8:	f502 3294 	add.w	r2, r2, #75776	@ 0x12800
 81038ac:	4293      	cmp	r3, r2
 81038ae:	d107      	bne.n	81038c0 <HAL_TIM_Base_Start_IT+0x64>
 81038b0:	6899      	ldr	r1, [r3, #8]
 81038b2:	4a08      	ldr	r2, [pc, #32]	@ (81038d4 <HAL_TIM_Base_Start_IT+0x78>)
 81038b4:	400a      	ands	r2, r1
 81038b6:	2a06      	cmp	r2, #6
 81038b8:	d006      	beq.n	81038c8 <HAL_TIM_Base_Start_IT+0x6c>
 81038ba:	f5b2 3f80 	cmp.w	r2, #65536	@ 0x10000
 81038be:	d003      	beq.n	81038c8 <HAL_TIM_Base_Start_IT+0x6c>
 81038c0:	681a      	ldr	r2, [r3, #0]
 81038c2:	f042 0201 	orr.w	r2, r2, #1
 81038c6:	601a      	str	r2, [r3, #0]
 81038c8:	2000      	movs	r0, #0
 81038ca:	4770      	bx	lr
 81038cc:	2001      	movs	r0, #1
 81038ce:	4770      	bx	lr
 81038d0:	40010000 	.word	0x40010000
 81038d4:	00010007 	.word	0x00010007

081038d8 <HAL_TIM_OC_DelayElapsedCallback>:
 81038d8:	4770      	bx	lr

081038da <HAL_TIM_IC_CaptureCallback>:
 81038da:	4770      	bx	lr

081038dc <HAL_TIM_PWM_PulseFinishedCallback>:
 81038dc:	4770      	bx	lr

081038de <HAL_TIM_TriggerCallback>:
 81038de:	4770      	bx	lr

081038e0 <HAL_TIM_IRQHandler>:
 81038e0:	6803      	ldr	r3, [r0, #0]
 81038e2:	b570      	push	{r4, r5, r6, lr}
 81038e4:	68dd      	ldr	r5, [r3, #12]
 81038e6:	691e      	ldr	r6, [r3, #16]
 81038e8:	07b2      	lsls	r2, r6, #30
 81038ea:	4604      	mov	r4, r0
 81038ec:	d50d      	bpl.n	810390a <HAL_TIM_IRQHandler+0x2a>
 81038ee:	07a9      	lsls	r1, r5, #30
 81038f0:	d50b      	bpl.n	810390a <HAL_TIM_IRQHandler+0x2a>
 81038f2:	f06f 0202 	mvn.w	r2, #2
 81038f6:	611a      	str	r2, [r3, #16]
 81038f8:	2201      	movs	r2, #1
 81038fa:	7702      	strb	r2, [r0, #28]
 81038fc:	699b      	ldr	r3, [r3, #24]
 81038fe:	079a      	lsls	r2, r3, #30
 8103900:	d075      	beq.n	81039ee <HAL_TIM_IRQHandler+0x10e>
 8103902:	f7ff ffea 	bl	81038da <HAL_TIM_IC_CaptureCallback>
 8103906:	2300      	movs	r3, #0
 8103908:	7723      	strb	r3, [r4, #28]
 810390a:	0773      	lsls	r3, r6, #29
 810390c:	d510      	bpl.n	8103930 <HAL_TIM_IRQHandler+0x50>
 810390e:	0768      	lsls	r0, r5, #29
 8103910:	d50e      	bpl.n	8103930 <HAL_TIM_IRQHandler+0x50>
 8103912:	6823      	ldr	r3, [r4, #0]
 8103914:	f06f 0204 	mvn.w	r2, #4
 8103918:	611a      	str	r2, [r3, #16]
 810391a:	2202      	movs	r2, #2
 810391c:	7722      	strb	r2, [r4, #28]
 810391e:	699b      	ldr	r3, [r3, #24]
 8103920:	f413 7f40 	tst.w	r3, #768	@ 0x300
 8103924:	4620      	mov	r0, r4
 8103926:	d068      	beq.n	81039fa <HAL_TIM_IRQHandler+0x11a>
 8103928:	f7ff ffd7 	bl	81038da <HAL_TIM_IC_CaptureCallback>
 810392c:	2300      	movs	r3, #0
 810392e:	7723      	strb	r3, [r4, #28]
 8103930:	0731      	lsls	r1, r6, #28
 8103932:	d50f      	bpl.n	8103954 <HAL_TIM_IRQHandler+0x74>
 8103934:	072a      	lsls	r2, r5, #28
 8103936:	d50d      	bpl.n	8103954 <HAL_TIM_IRQHandler+0x74>
 8103938:	6823      	ldr	r3, [r4, #0]
 810393a:	f06f 0208 	mvn.w	r2, #8
 810393e:	611a      	str	r2, [r3, #16]
 8103940:	2204      	movs	r2, #4
 8103942:	7722      	strb	r2, [r4, #28]
 8103944:	69db      	ldr	r3, [r3, #28]
 8103946:	079b      	lsls	r3, r3, #30
 8103948:	4620      	mov	r0, r4
 810394a:	d05c      	beq.n	8103a06 <HAL_TIM_IRQHandler+0x126>
 810394c:	f7ff ffc5 	bl	81038da <HAL_TIM_IC_CaptureCallback>
 8103950:	2300      	movs	r3, #0
 8103952:	7723      	strb	r3, [r4, #28]
 8103954:	06f1      	lsls	r1, r6, #27
 8103956:	d510      	bpl.n	810397a <HAL_TIM_IRQHandler+0x9a>
 8103958:	06ea      	lsls	r2, r5, #27
 810395a:	d50e      	bpl.n	810397a <HAL_TIM_IRQHandler+0x9a>
 810395c:	6823      	ldr	r3, [r4, #0]
 810395e:	f06f 0210 	mvn.w	r2, #16
 8103962:	611a      	str	r2, [r3, #16]
 8103964:	2208      	movs	r2, #8
 8103966:	7722      	strb	r2, [r4, #28]
 8103968:	69db      	ldr	r3, [r3, #28]
 810396a:	f413 7f40 	tst.w	r3, #768	@ 0x300
 810396e:	4620      	mov	r0, r4
 8103970:	d04f      	beq.n	8103a12 <HAL_TIM_IRQHandler+0x132>
 8103972:	f7ff ffb2 	bl	81038da <HAL_TIM_IC_CaptureCallback>
 8103976:	2300      	movs	r3, #0
 8103978:	7723      	strb	r3, [r4, #28]
 810397a:	07f3      	lsls	r3, r6, #31
 810397c:	d508      	bpl.n	8103990 <HAL_TIM_IRQHandler+0xb0>
 810397e:	07e8      	lsls	r0, r5, #31
 8103980:	d506      	bpl.n	8103990 <HAL_TIM_IRQHandler+0xb0>
 8103982:	6823      	ldr	r3, [r4, #0]
 8103984:	f06f 0201 	mvn.w	r2, #1
 8103988:	611a      	str	r2, [r3, #16]
 810398a:	4620      	mov	r0, r4
 810398c:	f7fd f862 	bl	8100a54 <HAL_TIM_PeriodElapsedCallback>
 8103990:	f416 5f02 	tst.w	r6, #8320	@ 0x2080
 8103994:	d008      	beq.n	81039a8 <HAL_TIM_IRQHandler+0xc8>
 8103996:	0629      	lsls	r1, r5, #24
 8103998:	d506      	bpl.n	81039a8 <HAL_TIM_IRQHandler+0xc8>
 810399a:	6823      	ldr	r3, [r4, #0]
 810399c:	f46f 5202 	mvn.w	r2, #8320	@ 0x2080
 81039a0:	611a      	str	r2, [r3, #16]
 81039a2:	4620      	mov	r0, r4
 81039a4:	f000 fa39 	bl	8103e1a <HAL_TIMEx_BreakCallback>
 81039a8:	05f2      	lsls	r2, r6, #23
 81039aa:	d508      	bpl.n	81039be <HAL_TIM_IRQHandler+0xde>
 81039ac:	062b      	lsls	r3, r5, #24
 81039ae:	d506      	bpl.n	81039be <HAL_TIM_IRQHandler+0xde>
 81039b0:	6823      	ldr	r3, [r4, #0]
 81039b2:	f46f 7280 	mvn.w	r2, #256	@ 0x100
 81039b6:	611a      	str	r2, [r3, #16]
 81039b8:	4620      	mov	r0, r4
 81039ba:	f000 fa2f 	bl	8103e1c <HAL_TIMEx_Break2Callback>
 81039be:	0670      	lsls	r0, r6, #25
 81039c0:	d508      	bpl.n	81039d4 <HAL_TIM_IRQHandler+0xf4>
 81039c2:	0669      	lsls	r1, r5, #25
 81039c4:	d506      	bpl.n	81039d4 <HAL_TIM_IRQHandler+0xf4>
 81039c6:	6823      	ldr	r3, [r4, #0]
 81039c8:	f06f 0240 	mvn.w	r2, #64	@ 0x40
 81039cc:	611a      	str	r2, [r3, #16]
 81039ce:	4620      	mov	r0, r4
 81039d0:	f7ff ff85 	bl	81038de <HAL_TIM_TriggerCallback>
 81039d4:	06b2      	lsls	r2, r6, #26
 81039d6:	d522      	bpl.n	8103a1e <HAL_TIM_IRQHandler+0x13e>
 81039d8:	06ab      	lsls	r3, r5, #26
 81039da:	d520      	bpl.n	8103a1e <HAL_TIM_IRQHandler+0x13e>
 81039dc:	6823      	ldr	r3, [r4, #0]
 81039de:	f06f 0220 	mvn.w	r2, #32
 81039e2:	4620      	mov	r0, r4
 81039e4:	611a      	str	r2, [r3, #16]
 81039e6:	e8bd 4070 	ldmia.w	sp!, {r4, r5, r6, lr}
 81039ea:	f000 ba15 	b.w	8103e18 <HAL_TIMEx_CommutCallback>
 81039ee:	f7ff ff73 	bl	81038d8 <HAL_TIM_OC_DelayElapsedCallback>
 81039f2:	4620      	mov	r0, r4
 81039f4:	f7ff ff72 	bl	81038dc <HAL_TIM_PWM_PulseFinishedCallback>
 81039f8:	e785      	b.n	8103906 <HAL_TIM_IRQHandler+0x26>
 81039fa:	f7ff ff6d 	bl	81038d8 <HAL_TIM_OC_DelayElapsedCallback>
 81039fe:	4620      	mov	r0, r4
 8103a00:	f7ff ff6c 	bl	81038dc <HAL_TIM_PWM_PulseFinishedCallback>
 8103a04:	e792      	b.n	810392c <HAL_TIM_IRQHandler+0x4c>
 8103a06:	f7ff ff67 	bl	81038d8 <HAL_TIM_OC_DelayElapsedCallback>
 8103a0a:	4620      	mov	r0, r4
 8103a0c:	f7ff ff66 	bl	81038dc <HAL_TIM_PWM_PulseFinishedCallback>
 8103a10:	e79e      	b.n	8103950 <HAL_TIM_IRQHandler+0x70>
 8103a12:	f7ff ff61 	bl	81038d8 <HAL_TIM_OC_DelayElapsedCallback>
 8103a16:	4620      	mov	r0, r4
 8103a18:	f7ff ff60 	bl	81038dc <HAL_TIM_PWM_PulseFinishedCallback>
 8103a1c:	e7ab      	b.n	8103976 <HAL_TIM_IRQHandler+0x96>
 8103a1e:	bd70      	pop	{r4, r5, r6, pc}

08103a20 <TIM_Base_SetConfig>:
 8103a20:	4a27      	ldr	r2, [pc, #156]	@ (8103ac0 <TIM_Base_SetConfig+0xa0>)
 8103a22:	6803      	ldr	r3, [r0, #0]
 8103a24:	4290      	cmp	r0, r2
 8103a26:	d012      	beq.n	8103a4e <TIM_Base_SetConfig+0x2e>
 8103a28:	f1b0 4f80 	cmp.w	r0, #1073741824	@ 0x40000000
 8103a2c:	d00f      	beq.n	8103a4e <TIM_Base_SetConfig+0x2e>
 8103a2e:	f5a2 427c 	sub.w	r2, r2, #64512	@ 0xfc00
 8103a32:	4290      	cmp	r0, r2
 8103a34:	d00b      	beq.n	8103a4e <TIM_Base_SetConfig+0x2e>
 8103a36:	f502 6280 	add.w	r2, r2, #1024	@ 0x400
 8103a3a:	4290      	cmp	r0, r2
 8103a3c:	d007      	beq.n	8103a4e <TIM_Base_SetConfig+0x2e>
 8103a3e:	f502 6280 	add.w	r2, r2, #1024	@ 0x400
 8103a42:	4290      	cmp	r0, r2
 8103a44:	d003      	beq.n	8103a4e <TIM_Base_SetConfig+0x2e>
 8103a46:	f502 4278 	add.w	r2, r2, #63488	@ 0xf800
 8103a4a:	4290      	cmp	r0, r2
 8103a4c:	d108      	bne.n	8103a60 <TIM_Base_SetConfig+0x40>
 8103a4e:	684a      	ldr	r2, [r1, #4]
 8103a50:	f023 0370 	bic.w	r3, r3, #112	@ 0x70
 8103a54:	4313      	orrs	r3, r2
 8103a56:	68ca      	ldr	r2, [r1, #12]
 8103a58:	f423 7340 	bic.w	r3, r3, #768	@ 0x300
 8103a5c:	4313      	orrs	r3, r2
 8103a5e:	e00a      	b.n	8103a76 <TIM_Base_SetConfig+0x56>
 8103a60:	4a18      	ldr	r2, [pc, #96]	@ (8103ac4 <TIM_Base_SetConfig+0xa4>)
 8103a62:	4290      	cmp	r0, r2
 8103a64:	d0f7      	beq.n	8103a56 <TIM_Base_SetConfig+0x36>
 8103a66:	f502 6280 	add.w	r2, r2, #1024	@ 0x400
 8103a6a:	4290      	cmp	r0, r2
 8103a6c:	d0f3      	beq.n	8103a56 <TIM_Base_SetConfig+0x36>
 8103a6e:	f502 6280 	add.w	r2, r2, #1024	@ 0x400
 8103a72:	4290      	cmp	r0, r2
 8103a74:	d0ef      	beq.n	8103a56 <TIM_Base_SetConfig+0x36>
 8103a76:	694a      	ldr	r2, [r1, #20]
 8103a78:	f023 0380 	bic.w	r3, r3, #128	@ 0x80
 8103a7c:	4313      	orrs	r3, r2
 8103a7e:	688a      	ldr	r2, [r1, #8]
 8103a80:	62c2      	str	r2, [r0, #44]	@ 0x2c
 8103a82:	680a      	ldr	r2, [r1, #0]
 8103a84:	6282      	str	r2, [r0, #40]	@ 0x28
 8103a86:	4a0e      	ldr	r2, [pc, #56]	@ (8103ac0 <TIM_Base_SetConfig+0xa0>)
 8103a88:	4290      	cmp	r0, r2
 8103a8a:	d00f      	beq.n	8103aac <TIM_Base_SetConfig+0x8c>
 8103a8c:	f502 6280 	add.w	r2, r2, #1024	@ 0x400
 8103a90:	4290      	cmp	r0, r2
 8103a92:	d00b      	beq.n	8103aac <TIM_Base_SetConfig+0x8c>
 8103a94:	f502 5270 	add.w	r2, r2, #15360	@ 0x3c00
 8103a98:	4290      	cmp	r0, r2
 8103a9a:	d007      	beq.n	8103aac <TIM_Base_SetConfig+0x8c>
 8103a9c:	f502 6280 	add.w	r2, r2, #1024	@ 0x400
 8103aa0:	4290      	cmp	r0, r2
 8103aa2:	d003      	beq.n	8103aac <TIM_Base_SetConfig+0x8c>
 8103aa4:	f502 6280 	add.w	r2, r2, #1024	@ 0x400
 8103aa8:	4290      	cmp	r0, r2
 8103aaa:	d101      	bne.n	8103ab0 <TIM_Base_SetConfig+0x90>
 8103aac:	690a      	ldr	r2, [r1, #16]
 8103aae:	6302      	str	r2, [r0, #48]	@ 0x30
 8103ab0:	6802      	ldr	r2, [r0, #0]
 8103ab2:	f042 0204 	orr.w	r2, r2, #4
 8103ab6:	6002      	str	r2, [r0, #0]
 8103ab8:	2201      	movs	r2, #1
 8103aba:	6142      	str	r2, [r0, #20]
 8103abc:	6003      	str	r3, [r0, #0]
 8103abe:	4770      	bx	lr
 8103ac0:	40010000 	.word	0x40010000
 8103ac4:	40014000 	.word	0x40014000

08103ac8 <HAL_TIM_Base_Init>:
 8103ac8:	b510      	push	{r4, lr}
 8103aca:	4604      	mov	r4, r0
 8103acc:	b350      	cbz	r0, 8103b24 <HAL_TIM_Base_Init+0x5c>
 8103ace:	f890 303d 	ldrb.w	r3, [r0, #61]	@ 0x3d
 8103ad2:	f003 02ff 	and.w	r2, r3, #255	@ 0xff
 8103ad6:	b91b      	cbnz	r3, 8103ae0 <HAL_TIM_Base_Init+0x18>
 8103ad8:	f880 203c 	strb.w	r2, [r0, #60]	@ 0x3c
 8103adc:	f7fd f98e 	bl	8100dfc <HAL_TIM_Base_MspInit>
 8103ae0:	2302      	movs	r3, #2
 8103ae2:	6820      	ldr	r0, [r4, #0]
 8103ae4:	f884 303d 	strb.w	r3, [r4, #61]	@ 0x3d
 8103ae8:	1d21      	adds	r1, r4, #4
 8103aea:	f7ff ff99 	bl	8103a20 <TIM_Base_SetConfig>
 8103aee:	2301      	movs	r3, #1
 8103af0:	f884 3048 	strb.w	r3, [r4, #72]	@ 0x48
 8103af4:	2000      	movs	r0, #0
 8103af6:	f884 303e 	strb.w	r3, [r4, #62]	@ 0x3e
 8103afa:	f884 303f 	strb.w	r3, [r4, #63]	@ 0x3f
 8103afe:	f884 3040 	strb.w	r3, [r4, #64]	@ 0x40
 8103b02:	f884 3041 	strb.w	r3, [r4, #65]	@ 0x41
 8103b06:	f884 3042 	strb.w	r3, [r4, #66]	@ 0x42
 8103b0a:	f884 3043 	strb.w	r3, [r4, #67]	@ 0x43
 8103b0e:	f884 3044 	strb.w	r3, [r4, #68]	@ 0x44
 8103b12:	f884 3045 	strb.w	r3, [r4, #69]	@ 0x45
 8103b16:	f884 3046 	strb.w	r3, [r4, #70]	@ 0x46
 8103b1a:	f884 3047 	strb.w	r3, [r4, #71]	@ 0x47
 8103b1e:	f884 303d 	strb.w	r3, [r4, #61]	@ 0x3d
 8103b22:	bd10      	pop	{r4, pc}
 8103b24:	2001      	movs	r0, #1
 8103b26:	e7fc      	b.n	8103b22 <HAL_TIM_Base_Init+0x5a>

08103b28 <HAL_TIM_PWM_Init>:
 8103b28:	b510      	push	{r4, lr}
 8103b2a:	4604      	mov	r4, r0
 8103b2c:	b350      	cbz	r0, 8103b84 <HAL_TIM_PWM_Init+0x5c>
 8103b2e:	f890 303d 	ldrb.w	r3, [r0, #61]	@ 0x3d
 8103b32:	f003 02ff 	and.w	r2, r3, #255	@ 0xff
 8103b36:	b91b      	cbnz	r3, 8103b40 <HAL_TIM_PWM_Init+0x18>
 8103b38:	f880 203c 	strb.w	r2, [r0, #60]	@ 0x3c
 8103b3c:	f7fd f926 	bl	8100d8c <HAL_TIM_PWM_MspInit>
 8103b40:	2302      	movs	r3, #2
 8103b42:	6820      	ldr	r0, [r4, #0]
 8103b44:	f884 303d 	strb.w	r3, [r4, #61]	@ 0x3d
 8103b48:	1d21      	adds	r1, r4, #4
 8103b4a:	f7ff ff69 	bl	8103a20 <TIM_Base_SetConfig>
 8103b4e:	2301      	movs	r3, #1
 8103b50:	f884 3048 	strb.w	r3, [r4, #72]	@ 0x48
 8103b54:	2000      	movs	r0, #0
 8103b56:	f884 303e 	strb.w	r3, [r4, #62]	@ 0x3e
 8103b5a:	f884 303f 	strb.w	r3, [r4, #63]	@ 0x3f
 8103b5e:	f884 3040 	strb.w	r3, [r4, #64]	@ 0x40
 8103b62:	f884 3041 	strb.w	r3, [r4, #65]	@ 0x41
 8103b66:	f884 3042 	strb.w	r3, [r4, #66]	@ 0x42
 8103b6a:	f884 3043 	strb.w	r3, [r4, #67]	@ 0x43
 8103b6e:	f884 3044 	strb.w	r3, [r4, #68]	@ 0x44
 8103b72:	f884 3045 	strb.w	r3, [r4, #69]	@ 0x45
 8103b76:	f884 3046 	strb.w	r3, [r4, #70]	@ 0x46
 8103b7a:	f884 3047 	strb.w	r3, [r4, #71]	@ 0x47
 8103b7e:	f884 303d 	strb.w	r3, [r4, #61]	@ 0x3d
 8103b82:	bd10      	pop	{r4, pc}
 8103b84:	2001      	movs	r0, #1
 8103b86:	e7fc      	b.n	8103b82 <HAL_TIM_PWM_Init+0x5a>

08103b88 <TIM_OC2_SetConfig>:
 8103b88:	6a03      	ldr	r3, [r0, #32]
 8103b8a:	6a02      	ldr	r2, [r0, #32]
 8103b8c:	f022 0210 	bic.w	r2, r2, #16
 8103b90:	b570      	push	{r4, r5, r6, lr}
 8103b92:	6202      	str	r2, [r0, #32]
 8103b94:	6844      	ldr	r4, [r0, #4]
 8103b96:	6982      	ldr	r2, [r0, #24]
 8103b98:	680d      	ldr	r5, [r1, #0]
 8103b9a:	f022 7280 	bic.w	r2, r2, #16777216	@ 0x1000000
 8103b9e:	f422 42e6 	bic.w	r2, r2, #29440	@ 0x7300
 8103ba2:	ea42 2205 	orr.w	r2, r2, r5, lsl #8
 8103ba6:	688d      	ldr	r5, [r1, #8]
 8103ba8:	f023 0320 	bic.w	r3, r3, #32
 8103bac:	ea43 1305 	orr.w	r3, r3, r5, lsl #4
 8103bb0:	4d13      	ldr	r5, [pc, #76]	@ (8103c00 <TIM_OC2_SetConfig+0x78>)
 8103bb2:	42a8      	cmp	r0, r5
 8103bb4:	d00f      	beq.n	8103bd6 <TIM_OC2_SetConfig+0x4e>
 8103bb6:	f505 6580 	add.w	r5, r5, #1024	@ 0x400
 8103bba:	42a8      	cmp	r0, r5
 8103bbc:	d00b      	beq.n	8103bd6 <TIM_OC2_SetConfig+0x4e>
 8103bbe:	f505 5570 	add.w	r5, r5, #15360	@ 0x3c00
 8103bc2:	42a8      	cmp	r0, r5
 8103bc4:	d10f      	bne.n	8103be6 <TIM_OC2_SetConfig+0x5e>
 8103bc6:	f424 6540 	bic.w	r5, r4, #3072	@ 0xc00
 8103bca:	e9d1 4605 	ldrd	r4, r6, [r1, #20]
 8103bce:	4334      	orrs	r4, r6
 8103bd0:	ea45 0484 	orr.w	r4, r5, r4, lsl #2
 8103bd4:	e00e      	b.n	8103bf4 <TIM_OC2_SetConfig+0x6c>
 8103bd6:	68cd      	ldr	r5, [r1, #12]
 8103bd8:	f023 0380 	bic.w	r3, r3, #128	@ 0x80
 8103bdc:	ea43 1305 	orr.w	r3, r3, r5, lsl #4
 8103be0:	f023 0340 	bic.w	r3, r3, #64	@ 0x40
 8103be4:	e7ef      	b.n	8103bc6 <TIM_OC2_SetConfig+0x3e>
 8103be6:	4d07      	ldr	r5, [pc, #28]	@ (8103c04 <TIM_OC2_SetConfig+0x7c>)
 8103be8:	42a8      	cmp	r0, r5
 8103bea:	d0ec      	beq.n	8103bc6 <TIM_OC2_SetConfig+0x3e>
 8103bec:	f505 6580 	add.w	r5, r5, #1024	@ 0x400
 8103bf0:	42a8      	cmp	r0, r5
 8103bf2:	d0e8      	beq.n	8103bc6 <TIM_OC2_SetConfig+0x3e>
 8103bf4:	6044      	str	r4, [r0, #4]
 8103bf6:	6182      	str	r2, [r0, #24]
 8103bf8:	684a      	ldr	r2, [r1, #4]
 8103bfa:	6382      	str	r2, [r0, #56]	@ 0x38
 8103bfc:	6203      	str	r3, [r0, #32]
 8103bfe:	bd70      	pop	{r4, r5, r6, pc}
 8103c00:	40010000 	.word	0x40010000
 8103c04:	40014400 	.word	0x40014400

08103c08 <HAL_TIM_PWM_ConfigChannel>:
 8103c08:	b538      	push	{r3, r4, r5, lr}
 8103c0a:	f890 303c 	ldrb.w	r3, [r0, #60]	@ 0x3c
 8103c0e:	2b01      	cmp	r3, #1
 8103c10:	4604      	mov	r4, r0
 8103c12:	d073      	beq.n	8103cfc <HAL_TIM_PWM_ConfigChannel+0xf4>
 8103c14:	2001      	movs	r0, #1
 8103c16:	2a0c      	cmp	r2, #12
 8103c18:	f884 003c 	strb.w	r0, [r4, #60]	@ 0x3c
 8103c1c:	d04e      	beq.n	8103cbc <HAL_TIM_PWM_ConfigChannel+0xb4>
 8103c1e:	d808      	bhi.n	8103c32 <HAL_TIM_PWM_ConfigChannel+0x2a>
 8103c20:	2a04      	cmp	r2, #4
 8103c22:	d02b      	beq.n	8103c7c <HAL_TIM_PWM_ConfigChannel+0x74>
 8103c24:	2a08      	cmp	r2, #8
 8103c26:	d039      	beq.n	8103c9c <HAL_TIM_PWM_ConfigChannel+0x94>
 8103c28:	b1ba      	cbz	r2, 8103c5a <HAL_TIM_PWM_ConfigChannel+0x52>
 8103c2a:	2300      	movs	r3, #0
 8103c2c:	f884 303c 	strb.w	r3, [r4, #60]	@ 0x3c
 8103c30:	bd38      	pop	{r3, r4, r5, pc}
 8103c32:	2a10      	cmp	r2, #16
 8103c34:	d052      	beq.n	8103cdc <HAL_TIM_PWM_ConfigChannel+0xd4>
 8103c36:	2a14      	cmp	r2, #20
 8103c38:	d1f7      	bne.n	8103c2a <HAL_TIM_PWM_ConfigChannel+0x22>
 8103c3a:	6820      	ldr	r0, [r4, #0]
 8103c3c:	f7ff fdda 	bl	81037f4 <TIM_OC6_SetConfig>
 8103c40:	6d43      	ldr	r3, [r0, #84]	@ 0x54
 8103c42:	690a      	ldr	r2, [r1, #16]
 8103c44:	f443 6300 	orr.w	r3, r3, #2048	@ 0x800
 8103c48:	6543      	str	r3, [r0, #84]	@ 0x54
 8103c4a:	6d43      	ldr	r3, [r0, #84]	@ 0x54
 8103c4c:	f423 6380 	bic.w	r3, r3, #1024	@ 0x400
 8103c50:	6543      	str	r3, [r0, #84]	@ 0x54
 8103c52:	6d43      	ldr	r3, [r0, #84]	@ 0x54
 8103c54:	ea43 2302 	orr.w	r3, r3, r2, lsl #8
 8103c58:	e04e      	b.n	8103cf8 <HAL_TIM_PWM_ConfigChannel+0xf0>
 8103c5a:	6820      	ldr	r0, [r4, #0]
 8103c5c:	f7ff fce8 	bl	8103630 <TIM_OC1_SetConfig>
 8103c60:	6983      	ldr	r3, [r0, #24]
 8103c62:	690a      	ldr	r2, [r1, #16]
 8103c64:	f043 0308 	orr.w	r3, r3, #8
 8103c68:	6183      	str	r3, [r0, #24]
 8103c6a:	6983      	ldr	r3, [r0, #24]
 8103c6c:	f023 0304 	bic.w	r3, r3, #4
 8103c70:	6183      	str	r3, [r0, #24]
 8103c72:	6983      	ldr	r3, [r0, #24]
 8103c74:	4313      	orrs	r3, r2
 8103c76:	6183      	str	r3, [r0, #24]
 8103c78:	2000      	movs	r0, #0
 8103c7a:	e7d6      	b.n	8103c2a <HAL_TIM_PWM_ConfigChannel+0x22>
 8103c7c:	6820      	ldr	r0, [r4, #0]
 8103c7e:	f7ff ff83 	bl	8103b88 <TIM_OC2_SetConfig>
 8103c82:	6983      	ldr	r3, [r0, #24]
 8103c84:	690a      	ldr	r2, [r1, #16]
 8103c86:	f443 6300 	orr.w	r3, r3, #2048	@ 0x800
 8103c8a:	6183      	str	r3, [r0, #24]
 8103c8c:	6983      	ldr	r3, [r0, #24]
 8103c8e:	f423 6380 	bic.w	r3, r3, #1024	@ 0x400
 8103c92:	6183      	str	r3, [r0, #24]
 8103c94:	6983      	ldr	r3, [r0, #24]
 8103c96:	ea43 2302 	orr.w	r3, r3, r2, lsl #8
 8103c9a:	e7ec      	b.n	8103c76 <HAL_TIM_PWM_ConfigChannel+0x6e>
 8103c9c:	6820      	ldr	r0, [r4, #0]
 8103c9e:	f7ff fd01 	bl	81036a4 <TIM_OC3_SetConfig>
 8103ca2:	69c3      	ldr	r3, [r0, #28]
 8103ca4:	690a      	ldr	r2, [r1, #16]
 8103ca6:	f043 0308 	orr.w	r3, r3, #8
 8103caa:	61c3      	str	r3, [r0, #28]
 8103cac:	69c3      	ldr	r3, [r0, #28]
 8103cae:	f023 0304 	bic.w	r3, r3, #4
 8103cb2:	61c3      	str	r3, [r0, #28]
 8103cb4:	69c3      	ldr	r3, [r0, #28]
 8103cb6:	4313      	orrs	r3, r2
 8103cb8:	61c3      	str	r3, [r0, #28]
 8103cba:	e7dd      	b.n	8103c78 <HAL_TIM_PWM_ConfigChannel+0x70>
 8103cbc:	6820      	ldr	r0, [r4, #0]
 8103cbe:	f7ff fd31 	bl	8103724 <TIM_OC4_SetConfig>
 8103cc2:	69c3      	ldr	r3, [r0, #28]
 8103cc4:	690a      	ldr	r2, [r1, #16]
 8103cc6:	f443 6300 	orr.w	r3, r3, #2048	@ 0x800
 8103cca:	61c3      	str	r3, [r0, #28]
 8103ccc:	69c3      	ldr	r3, [r0, #28]
 8103cce:	f423 6380 	bic.w	r3, r3, #1024	@ 0x400
 8103cd2:	61c3      	str	r3, [r0, #28]
 8103cd4:	69c3      	ldr	r3, [r0, #28]
 8103cd6:	ea43 2302 	orr.w	r3, r3, r2, lsl #8
 8103cda:	e7ed      	b.n	8103cb8 <HAL_TIM_PWM_ConfigChannel+0xb0>
 8103cdc:	6820      	ldr	r0, [r4, #0]
 8103cde:	f7ff fd55 	bl	810378c <TIM_OC5_SetConfig>
 8103ce2:	6d43      	ldr	r3, [r0, #84]	@ 0x54
 8103ce4:	690a      	ldr	r2, [r1, #16]
 8103ce6:	f043 0308 	orr.w	r3, r3, #8
 8103cea:	6543      	str	r3, [r0, #84]	@ 0x54
 8103cec:	6d43      	ldr	r3, [r0, #84]	@ 0x54
 8103cee:	f023 0304 	bic.w	r3, r3, #4
 8103cf2:	6543      	str	r3, [r0, #84]	@ 0x54
 8103cf4:	6d43      	ldr	r3, [r0, #84]	@ 0x54
 8103cf6:	4313      	orrs	r3, r2
 8103cf8:	6543      	str	r3, [r0, #84]	@ 0x54
 8103cfa:	e7bd      	b.n	8103c78 <HAL_TIM_PWM_ConfigChannel+0x70>
 8103cfc:	2002      	movs	r0, #2
 8103cfe:	e797      	b.n	8103c30 <HAL_TIM_PWM_ConfigChannel+0x28>

08103d00 <HAL_TIMEx_MasterConfigSynchronization>:
 8103d00:	b570      	push	{r4, r5, r6, lr}
 8103d02:	f890 303c 	ldrb.w	r3, [r0, #60]	@ 0x3c
 8103d06:	2b01      	cmp	r3, #1
 8103d08:	4604      	mov	r4, r0
 8103d0a:	f04f 0002 	mov.w	r0, #2
 8103d0e:	d03a      	beq.n	8103d86 <HAL_TIMEx_MasterConfigSynchronization+0x86>
 8103d10:	6823      	ldr	r3, [r4, #0]
 8103d12:	4d1d      	ldr	r5, [pc, #116]	@ (8103d88 <HAL_TIMEx_MasterConfigSynchronization+0x88>)
 8103d14:	f884 003d 	strb.w	r0, [r4, #61]	@ 0x3d
 8103d18:	42ab      	cmp	r3, r5
 8103d1a:	685a      	ldr	r2, [r3, #4]
 8103d1c:	6898      	ldr	r0, [r3, #8]
 8103d1e:	d002      	beq.n	8103d26 <HAL_TIMEx_MasterConfigSynchronization+0x26>
 8103d20:	4e1a      	ldr	r6, [pc, #104]	@ (8103d8c <HAL_TIMEx_MasterConfigSynchronization+0x8c>)
 8103d22:	42b3      	cmp	r3, r6
 8103d24:	d103      	bne.n	8103d2e <HAL_TIMEx_MasterConfigSynchronization+0x2e>
 8103d26:	684e      	ldr	r6, [r1, #4]
 8103d28:	f422 0270 	bic.w	r2, r2, #15728640	@ 0xf00000
 8103d2c:	4332      	orrs	r2, r6
 8103d2e:	680e      	ldr	r6, [r1, #0]
 8103d30:	f022 0270 	bic.w	r2, r2, #112	@ 0x70
 8103d34:	4332      	orrs	r2, r6
 8103d36:	42ab      	cmp	r3, r5
 8103d38:	605a      	str	r2, [r3, #4]
 8103d3a:	d019      	beq.n	8103d70 <HAL_TIMEx_MasterConfigSynchronization+0x70>
 8103d3c:	f1b3 4f80 	cmp.w	r3, #1073741824	@ 0x40000000
 8103d40:	d016      	beq.n	8103d70 <HAL_TIMEx_MasterConfigSynchronization+0x70>
 8103d42:	4a13      	ldr	r2, [pc, #76]	@ (8103d90 <HAL_TIMEx_MasterConfigSynchronization+0x90>)
 8103d44:	4293      	cmp	r3, r2
 8103d46:	d013      	beq.n	8103d70 <HAL_TIMEx_MasterConfigSynchronization+0x70>
 8103d48:	f502 6280 	add.w	r2, r2, #1024	@ 0x400
 8103d4c:	4293      	cmp	r3, r2
 8103d4e:	d00f      	beq.n	8103d70 <HAL_TIMEx_MasterConfigSynchronization+0x70>
 8103d50:	f502 6280 	add.w	r2, r2, #1024	@ 0x400
 8103d54:	4293      	cmp	r3, r2
 8103d56:	d00b      	beq.n	8103d70 <HAL_TIMEx_MasterConfigSynchronization+0x70>
 8103d58:	f502 4278 	add.w	r2, r2, #63488	@ 0xf800
 8103d5c:	4293      	cmp	r3, r2
 8103d5e:	d007      	beq.n	8103d70 <HAL_TIMEx_MasterConfigSynchronization+0x70>
 8103d60:	f5a2 426c 	sub.w	r2, r2, #60416	@ 0xec00
 8103d64:	4293      	cmp	r3, r2
 8103d66:	d003      	beq.n	8103d70 <HAL_TIMEx_MasterConfigSynchronization+0x70>
 8103d68:	f502 3294 	add.w	r2, r2, #75776	@ 0x12800
 8103d6c:	4293      	cmp	r3, r2
 8103d6e:	d104      	bne.n	8103d7a <HAL_TIMEx_MasterConfigSynchronization+0x7a>
 8103d70:	6889      	ldr	r1, [r1, #8]
 8103d72:	f020 0280 	bic.w	r2, r0, #128	@ 0x80
 8103d76:	430a      	orrs	r2, r1
 8103d78:	609a      	str	r2, [r3, #8]
 8103d7a:	2301      	movs	r3, #1
 8103d7c:	2000      	movs	r0, #0
 8103d7e:	f884 303d 	strb.w	r3, [r4, #61]	@ 0x3d
 8103d82:	f884 003c 	strb.w	r0, [r4, #60]	@ 0x3c
 8103d86:	bd70      	pop	{r4, r5, r6, pc}
 8103d88:	40010000 	.word	0x40010000
 8103d8c:	40010400 	.word	0x40010400
 8103d90:	40000400 	.word	0x40000400

08103d94 <HAL_TIMEx_ConfigBreakDeadTime>:
 8103d94:	b510      	push	{r4, lr}
 8103d96:	f890 303c 	ldrb.w	r3, [r0, #60]	@ 0x3c
 8103d9a:	2b01      	cmp	r3, #1
 8103d9c:	4602      	mov	r2, r0
 8103d9e:	d037      	beq.n	8103e10 <HAL_TIMEx_ConfigBreakDeadTime+0x7c>
 8103da0:	68cb      	ldr	r3, [r1, #12]
 8103da2:	6888      	ldr	r0, [r1, #8]
 8103da4:	4c1b      	ldr	r4, [pc, #108]	@ (8103e14 <HAL_TIMEx_ConfigBreakDeadTime+0x80>)
 8103da6:	f423 7340 	bic.w	r3, r3, #768	@ 0x300
 8103daa:	4303      	orrs	r3, r0
 8103dac:	6848      	ldr	r0, [r1, #4]
 8103dae:	f423 6380 	bic.w	r3, r3, #1024	@ 0x400
 8103db2:	4303      	orrs	r3, r0
 8103db4:	6808      	ldr	r0, [r1, #0]
 8103db6:	f423 6300 	bic.w	r3, r3, #2048	@ 0x800
 8103dba:	4303      	orrs	r3, r0
 8103dbc:	6908      	ldr	r0, [r1, #16]
 8103dbe:	f423 5380 	bic.w	r3, r3, #4096	@ 0x1000
 8103dc2:	4303      	orrs	r3, r0
 8103dc4:	6948      	ldr	r0, [r1, #20]
 8103dc6:	f423 5300 	bic.w	r3, r3, #8192	@ 0x2000
 8103dca:	4303      	orrs	r3, r0
 8103dcc:	6a88      	ldr	r0, [r1, #40]	@ 0x28
 8103dce:	f423 4380 	bic.w	r3, r3, #16384	@ 0x4000
 8103dd2:	4303      	orrs	r3, r0
 8103dd4:	6988      	ldr	r0, [r1, #24]
 8103dd6:	f423 2370 	bic.w	r3, r3, #983040	@ 0xf0000
 8103dda:	ea43 4300 	orr.w	r3, r3, r0, lsl #16
 8103dde:	6810      	ldr	r0, [r2, #0]
 8103de0:	42a0      	cmp	r0, r4
 8103de2:	d003      	beq.n	8103dec <HAL_TIMEx_ConfigBreakDeadTime+0x58>
 8103de4:	f504 6480 	add.w	r4, r4, #1024	@ 0x400
 8103de8:	42a0      	cmp	r0, r4
 8103dea:	d10c      	bne.n	8103e06 <HAL_TIMEx_ConfigBreakDeadTime+0x72>
 8103dec:	6a4c      	ldr	r4, [r1, #36]	@ 0x24
 8103dee:	f423 0370 	bic.w	r3, r3, #15728640	@ 0xf00000
 8103df2:	ea43 5304 	orr.w	r3, r3, r4, lsl #20
 8103df6:	69cc      	ldr	r4, [r1, #28]
 8103df8:	6a09      	ldr	r1, [r1, #32]
 8103dfa:	f023 7380 	bic.w	r3, r3, #16777216	@ 0x1000000
 8103dfe:	4323      	orrs	r3, r4
 8103e00:	f023 7300 	bic.w	r3, r3, #33554432	@ 0x2000000
 8103e04:	430b      	orrs	r3, r1
 8103e06:	6443      	str	r3, [r0, #68]	@ 0x44
 8103e08:	2000      	movs	r0, #0
 8103e0a:	f882 003c 	strb.w	r0, [r2, #60]	@ 0x3c
 8103e0e:	bd10      	pop	{r4, pc}
 8103e10:	2002      	movs	r0, #2
 8103e12:	e7fc      	b.n	8103e0e <HAL_TIMEx_ConfigBreakDeadTime+0x7a>
 8103e14:	40010000 	.word	0x40010000

08103e18 <HAL_TIMEx_CommutCallback>:
 8103e18:	4770      	bx	lr

08103e1a <HAL_TIMEx_BreakCallback>:
 8103e1a:	4770      	bx	lr

08103e1c <HAL_TIMEx_Break2Callback>:
 8103e1c:	4770      	bx	lr
	...

08103e20 <UART_EndRxTransfer>:
 8103e20:	b510      	push	{r4, lr}
 8103e22:	6802      	ldr	r2, [r0, #0]
 8103e24:	e852 3f00 	ldrex	r3, [r2]
 8103e28:	f423 7390 	bic.w	r3, r3, #288	@ 0x120
 8103e2c:	e842 3100 	strex	r1, r3, [r2]
 8103e30:	6802      	ldr	r2, [r0, #0]
 8103e32:	2900      	cmp	r1, #0
 8103e34:	d1f5      	bne.n	8103e22 <UART_EndRxTransfer+0x2>
 8103e36:	4c0f      	ldr	r4, [pc, #60]	@ (8103e74 <UART_EndRxTransfer+0x54>)
 8103e38:	f102 0308 	add.w	r3, r2, #8
 8103e3c:	e853 3f00 	ldrex	r3, [r3]
 8103e40:	4023      	ands	r3, r4
 8103e42:	f102 0c08 	add.w	ip, r2, #8
 8103e46:	e84c 3100 	strex	r1, r3, [ip]
 8103e4a:	2900      	cmp	r1, #0
 8103e4c:	d1f4      	bne.n	8103e38 <UART_EndRxTransfer+0x18>
 8103e4e:	6ec3      	ldr	r3, [r0, #108]	@ 0x6c
 8103e50:	2b01      	cmp	r3, #1
 8103e52:	d107      	bne.n	8103e64 <UART_EndRxTransfer+0x44>
 8103e54:	e852 3f00 	ldrex	r3, [r2]
 8103e58:	f023 0310 	bic.w	r3, r3, #16
 8103e5c:	e842 3100 	strex	r1, r3, [r2]
 8103e60:	2900      	cmp	r1, #0
 8103e62:	d1f7      	bne.n	8103e54 <UART_EndRxTransfer+0x34>
 8103e64:	2320      	movs	r3, #32
 8103e66:	f8c0 308c 	str.w	r3, [r0, #140]	@ 0x8c
 8103e6a:	2300      	movs	r3, #0
 8103e6c:	66c3      	str	r3, [r0, #108]	@ 0x6c
 8103e6e:	6743      	str	r3, [r0, #116]	@ 0x74
 8103e70:	bd10      	pop	{r4, pc}
 8103e72:	bf00      	nop
 8103e74:	effffffe 	.word	0xeffffffe

08103e78 <UART_WaitOnFlagUntilTimeout>:
 8103e78:	e92d 43f8 	stmdb	sp!, {r3, r4, r5, r6, r7, r8, r9, lr}
 8103e7c:	f8dd 9020 	ldr.w	r9, [sp, #32]
 8103e80:	4604      	mov	r4, r0
 8103e82:	460d      	mov	r5, r1
 8103e84:	4617      	mov	r7, r2
 8103e86:	4698      	mov	r8, r3
 8103e88:	6822      	ldr	r2, [r4, #0]
 8103e8a:	69d3      	ldr	r3, [r2, #28]
 8103e8c:	ea35 0303 	bics.w	r3, r5, r3
 8103e90:	bf0c      	ite	eq
 8103e92:	2301      	moveq	r3, #1
 8103e94:	2300      	movne	r3, #0
 8103e96:	42bb      	cmp	r3, r7
 8103e98:	d001      	beq.n	8103e9e <UART_WaitOnFlagUntilTimeout+0x26>
 8103e9a:	2000      	movs	r0, #0
 8103e9c:	e022      	b.n	8103ee4 <UART_WaitOnFlagUntilTimeout+0x6c>
 8103e9e:	f1b9 3fff 	cmp.w	r9, #4294967295
 8103ea2:	d0f2      	beq.n	8103e8a <UART_WaitOnFlagUntilTimeout+0x12>
 8103ea4:	f7fd fa8e 	bl	81013c4 <HAL_GetTick>
 8103ea8:	eba0 0008 	sub.w	r0, r0, r8
 8103eac:	4548      	cmp	r0, r9
 8103eae:	d829      	bhi.n	8103f04 <UART_WaitOnFlagUntilTimeout+0x8c>
 8103eb0:	f1b9 0f00 	cmp.w	r9, #0
 8103eb4:	d026      	beq.n	8103f04 <UART_WaitOnFlagUntilTimeout+0x8c>
 8103eb6:	6821      	ldr	r1, [r4, #0]
 8103eb8:	680b      	ldr	r3, [r1, #0]
 8103eba:	075a      	lsls	r2, r3, #29
 8103ebc:	d5e4      	bpl.n	8103e88 <UART_WaitOnFlagUntilTimeout+0x10>
 8103ebe:	2d80      	cmp	r5, #128	@ 0x80
 8103ec0:	d0e2      	beq.n	8103e88 <UART_WaitOnFlagUntilTimeout+0x10>
 8103ec2:	2d40      	cmp	r5, #64	@ 0x40
 8103ec4:	d0e0      	beq.n	8103e88 <UART_WaitOnFlagUntilTimeout+0x10>
 8103ec6:	69ce      	ldr	r6, [r1, #28]
 8103ec8:	f016 0608 	ands.w	r6, r6, #8
 8103ecc:	d00c      	beq.n	8103ee8 <UART_WaitOnFlagUntilTimeout+0x70>
 8103ece:	2508      	movs	r5, #8
 8103ed0:	4620      	mov	r0, r4
 8103ed2:	620d      	str	r5, [r1, #32]
 8103ed4:	f7ff ffa4 	bl	8103e20 <UART_EndRxTransfer>
 8103ed8:	2300      	movs	r3, #0
 8103eda:	f8c4 5090 	str.w	r5, [r4, #144]	@ 0x90
 8103ede:	f884 3084 	strb.w	r3, [r4, #132]	@ 0x84
 8103ee2:	2001      	movs	r0, #1
 8103ee4:	e8bd 83f8 	ldmia.w	sp!, {r3, r4, r5, r6, r7, r8, r9, pc}
 8103ee8:	69cb      	ldr	r3, [r1, #28]
 8103eea:	051b      	lsls	r3, r3, #20
 8103eec:	d5cc      	bpl.n	8103e88 <UART_WaitOnFlagUntilTimeout+0x10>
 8103eee:	f44f 6300 	mov.w	r3, #2048	@ 0x800
 8103ef2:	620b      	str	r3, [r1, #32]
 8103ef4:	4620      	mov	r0, r4
 8103ef6:	f7ff ff93 	bl	8103e20 <UART_EndRxTransfer>
 8103efa:	2320      	movs	r3, #32
 8103efc:	f8c4 3090 	str.w	r3, [r4, #144]	@ 0x90
 8103f00:	f884 6084 	strb.w	r6, [r4, #132]	@ 0x84
 8103f04:	2003      	movs	r0, #3
 8103f06:	e7ed      	b.n	8103ee4 <UART_WaitOnFlagUntilTimeout+0x6c>

08103f08 <HAL_UART_Transmit>:
 8103f08:	e92d 43f7 	stmdb	sp!, {r0, r1, r2, r4, r5, r6, r7, r8, r9, lr}
 8103f0c:	4698      	mov	r8, r3
 8103f0e:	f8d0 3088 	ldr.w	r3, [r0, #136]	@ 0x88
 8103f12:	2b20      	cmp	r3, #32
 8103f14:	4604      	mov	r4, r0
 8103f16:	460e      	mov	r6, r1
 8103f18:	4617      	mov	r7, r2
 8103f1a:	d146      	bne.n	8103faa <HAL_UART_Transmit+0xa2>
 8103f1c:	2900      	cmp	r1, #0
 8103f1e:	d046      	beq.n	8103fae <HAL_UART_Transmit+0xa6>
 8103f20:	2a00      	cmp	r2, #0
 8103f22:	d044      	beq.n	8103fae <HAL_UART_Transmit+0xa6>
 8103f24:	2321      	movs	r3, #33	@ 0x21
 8103f26:	2500      	movs	r5, #0
 8103f28:	f8c0 5090 	str.w	r5, [r0, #144]	@ 0x90
 8103f2c:	f8c0 3088 	str.w	r3, [r0, #136]	@ 0x88
 8103f30:	f7fd fa48 	bl	81013c4 <HAL_GetTick>
 8103f34:	68a3      	ldr	r3, [r4, #8]
 8103f36:	f8a4 7054 	strh.w	r7, [r4, #84]	@ 0x54
 8103f3a:	f5b3 5f80 	cmp.w	r3, #4096	@ 0x1000
 8103f3e:	4681      	mov	r9, r0
 8103f40:	f8a4 7056 	strh.w	r7, [r4, #86]	@ 0x56
 8103f44:	d103      	bne.n	8103f4e <HAL_UART_Transmit+0x46>
 8103f46:	6923      	ldr	r3, [r4, #16]
 8103f48:	b90b      	cbnz	r3, 8103f4e <HAL_UART_Transmit+0x46>
 8103f4a:	4635      	mov	r5, r6
 8103f4c:	461e      	mov	r6, r3
 8103f4e:	f8b4 2056 	ldrh.w	r2, [r4, #86]	@ 0x56
 8103f52:	f8cd 8000 	str.w	r8, [sp]
 8103f56:	b292      	uxth	r2, r2
 8103f58:	464b      	mov	r3, r9
 8103f5a:	b942      	cbnz	r2, 8103f6e <HAL_UART_Transmit+0x66>
 8103f5c:	2140      	movs	r1, #64	@ 0x40
 8103f5e:	4620      	mov	r0, r4
 8103f60:	f7ff ff8a 	bl	8103e78 <UART_WaitOnFlagUntilTimeout>
 8103f64:	2320      	movs	r3, #32
 8103f66:	b948      	cbnz	r0, 8103f7c <HAL_UART_Transmit+0x74>
 8103f68:	f8c4 3088 	str.w	r3, [r4, #136]	@ 0x88
 8103f6c:	e009      	b.n	8103f82 <HAL_UART_Transmit+0x7a>
 8103f6e:	2200      	movs	r2, #0
 8103f70:	2180      	movs	r1, #128	@ 0x80
 8103f72:	4620      	mov	r0, r4
 8103f74:	f7ff ff80 	bl	8103e78 <UART_WaitOnFlagUntilTimeout>
 8103f78:	b130      	cbz	r0, 8103f88 <HAL_UART_Transmit+0x80>
 8103f7a:	2320      	movs	r3, #32
 8103f7c:	f8c4 3088 	str.w	r3, [r4, #136]	@ 0x88
 8103f80:	2003      	movs	r0, #3
 8103f82:	b003      	add	sp, #12
 8103f84:	e8bd 83f0 	ldmia.w	sp!, {r4, r5, r6, r7, r8, r9, pc}
 8103f88:	6822      	ldr	r2, [r4, #0]
 8103f8a:	b95e      	cbnz	r6, 8103fa4 <HAL_UART_Transmit+0x9c>
 8103f8c:	f835 3b02 	ldrh.w	r3, [r5], #2
 8103f90:	f3c3 0308 	ubfx	r3, r3, #0, #9
 8103f94:	6293      	str	r3, [r2, #40]	@ 0x28
 8103f96:	f8b4 2056 	ldrh.w	r2, [r4, #86]	@ 0x56
 8103f9a:	3a01      	subs	r2, #1
 8103f9c:	b292      	uxth	r2, r2
 8103f9e:	f8a4 2056 	strh.w	r2, [r4, #86]	@ 0x56
 8103fa2:	e7d4      	b.n	8103f4e <HAL_UART_Transmit+0x46>
 8103fa4:	f816 3b01 	ldrb.w	r3, [r6], #1
 8103fa8:	e7f4      	b.n	8103f94 <HAL_UART_Transmit+0x8c>
 8103faa:	2002      	movs	r0, #2
 8103fac:	e7e9      	b.n	8103f82 <HAL_UART_Transmit+0x7a>
 8103fae:	2001      	movs	r0, #1
 8103fb0:	e7e7      	b.n	8103f82 <HAL_UART_Transmit+0x7a>

08103fb2 <USB_CoreReset>:
 8103fb2:	b082      	sub	sp, #8
 8103fb4:	2300      	movs	r3, #0
 8103fb6:	4602      	mov	r2, r0
 8103fb8:	9301      	str	r3, [sp, #4]
 8103fba:	9b01      	ldr	r3, [sp, #4]
 8103fbc:	3301      	adds	r3, #1
 8103fbe:	9301      	str	r3, [sp, #4]
 8103fc0:	9b01      	ldr	r3, [sp, #4]
 8103fc2:	f1b3 6f70 	cmp.w	r3, #251658240	@ 0xf000000
 8103fc6:	d815      	bhi.n	8103ff4 <USB_CoreReset+0x42>
 8103fc8:	6913      	ldr	r3, [r2, #16]
 8103fca:	2b00      	cmp	r3, #0
 8103fcc:	daf5      	bge.n	8103fba <USB_CoreReset+0x8>
 8103fce:	2300      	movs	r3, #0
 8103fd0:	9301      	str	r3, [sp, #4]
 8103fd2:	6913      	ldr	r3, [r2, #16]
 8103fd4:	f043 0301 	orr.w	r3, r3, #1
 8103fd8:	6113      	str	r3, [r2, #16]
 8103fda:	9b01      	ldr	r3, [sp, #4]
 8103fdc:	3301      	adds	r3, #1
 8103fde:	9301      	str	r3, [sp, #4]
 8103fe0:	9b01      	ldr	r3, [sp, #4]
 8103fe2:	f1b3 6f70 	cmp.w	r3, #251658240	@ 0xf000000
 8103fe6:	d805      	bhi.n	8103ff4 <USB_CoreReset+0x42>
 8103fe8:	6910      	ldr	r0, [r2, #16]
 8103fea:	f010 0001 	ands.w	r0, r0, #1
 8103fee:	d1f4      	bne.n	8103fda <USB_CoreReset+0x28>
 8103ff0:	b002      	add	sp, #8
 8103ff2:	4770      	bx	lr
 8103ff4:	2003      	movs	r0, #3
 8103ff6:	e7fb      	b.n	8103ff0 <USB_CoreReset+0x3e>

08103ff8 <USB_CoreInit>:
 8103ff8:	b084      	sub	sp, #16
 8103ffa:	b538      	push	{r3, r4, r5, lr}
 8103ffc:	ad05      	add	r5, sp, #20
 8103ffe:	e885 000e 	stmia.w	r5, {r1, r2, r3}
 8104002:	f89d 3019 	ldrb.w	r3, [sp, #25]
 8104006:	2b01      	cmp	r3, #1
 8104008:	4604      	mov	r4, r0
 810400a:	d130      	bne.n	810406e <USB_CoreInit+0x76>
 810400c:	6b83      	ldr	r3, [r0, #56]	@ 0x38
 810400e:	f423 3380 	bic.w	r3, r3, #65536	@ 0x10000
 8104012:	6383      	str	r3, [r0, #56]	@ 0x38
 8104014:	68c3      	ldr	r3, [r0, #12]
 8104016:	f423 0384 	bic.w	r3, r3, #4325376	@ 0x420000
 810401a:	f023 0340 	bic.w	r3, r3, #64	@ 0x40
 810401e:	60c3      	str	r3, [r0, #12]
 8104020:	68c3      	ldr	r3, [r0, #12]
 8104022:	f423 1340 	bic.w	r3, r3, #3145728	@ 0x300000
 8104026:	60c3      	str	r3, [r0, #12]
 8104028:	f89d 3020 	ldrb.w	r3, [sp, #32]
 810402c:	2b01      	cmp	r3, #1
 810402e:	bf02      	ittt	eq
 8104030:	68c3      	ldreq	r3, [r0, #12]
 8104032:	f443 1380 	orreq.w	r3, r3, #1048576	@ 0x100000
 8104036:	60c3      	streq	r3, [r0, #12]
 8104038:	f7ff ffbb 	bl	8103fb2 <USB_CoreReset>
 810403c:	f89d 3016 	ldrb.w	r3, [sp, #22]
 8104040:	2b01      	cmp	r3, #1
 8104042:	d110      	bne.n	8104066 <USB_CoreInit+0x6e>
 8104044:	6de3      	ldr	r3, [r4, #92]	@ 0x5c
 8104046:	b29b      	uxth	r3, r3
 8104048:	65e3      	str	r3, [r4, #92]	@ 0x5c
 810404a:	6de3      	ldr	r3, [r4, #92]	@ 0x5c
 810404c:	f043 737b 	orr.w	r3, r3, #65798144	@ 0x3ec0000
 8104050:	f443 3300 	orr.w	r3, r3, #131072	@ 0x20000
 8104054:	65e3      	str	r3, [r4, #92]	@ 0x5c
 8104056:	68a3      	ldr	r3, [r4, #8]
 8104058:	f043 0306 	orr.w	r3, r3, #6
 810405c:	60a3      	str	r3, [r4, #8]
 810405e:	68a3      	ldr	r3, [r4, #8]
 8104060:	f043 0320 	orr.w	r3, r3, #32
 8104064:	60a3      	str	r3, [r4, #8]
 8104066:	e8bd 4038 	ldmia.w	sp!, {r3, r4, r5, lr}
 810406a:	b004      	add	sp, #16
 810406c:	4770      	bx	lr
 810406e:	68c3      	ldr	r3, [r0, #12]
 8104070:	f043 0340 	orr.w	r3, r3, #64	@ 0x40
 8104074:	60c3      	str	r3, [r0, #12]
 8104076:	f7ff ff9c 	bl	8103fb2 <USB_CoreReset>
 810407a:	f89d 301d 	ldrb.w	r3, [sp, #29]
 810407e:	b923      	cbnz	r3, 810408a <USB_CoreInit+0x92>
 8104080:	6ba3      	ldr	r3, [r4, #56]	@ 0x38
 8104082:	f443 3380 	orr.w	r3, r3, #65536	@ 0x10000
 8104086:	63a3      	str	r3, [r4, #56]	@ 0x38
 8104088:	e7d8      	b.n	810403c <USB_CoreInit+0x44>
 810408a:	6ba3      	ldr	r3, [r4, #56]	@ 0x38
 810408c:	f423 3380 	bic.w	r3, r3, #65536	@ 0x10000
 8104090:	e7f9      	b.n	8104086 <USB_CoreInit+0x8e>

08104092 <USB_DisableGlobalInt>:
 8104092:	6883      	ldr	r3, [r0, #8]
 8104094:	f023 0301 	bic.w	r3, r3, #1
 8104098:	6083      	str	r3, [r0, #8]
 810409a:	2000      	movs	r0, #0
 810409c:	4770      	bx	lr

0810409e <USB_SetCurrentMode>:
 810409e:	b538      	push	{r3, r4, r5, lr}
 81040a0:	68c3      	ldr	r3, [r0, #12]
 81040a2:	2901      	cmp	r1, #1
 81040a4:	f023 43c0 	bic.w	r3, r3, #1610612736	@ 0x60000000
 81040a8:	4605      	mov	r5, r0
 81040aa:	460c      	mov	r4, r1
 81040ac:	60c3      	str	r3, [r0, #12]
 81040ae:	d114      	bne.n	81040da <USB_SetCurrentMode+0x3c>
 81040b0:	68c3      	ldr	r3, [r0, #12]
 81040b2:	f043 5300 	orr.w	r3, r3, #536870912	@ 0x20000000
 81040b6:	60c3      	str	r3, [r0, #12]
 81040b8:	2400      	movs	r4, #0
 81040ba:	200a      	movs	r0, #10
 81040bc:	f7fd f988 	bl	81013d0 <HAL_Delay>
 81040c0:	696b      	ldr	r3, [r5, #20]
 81040c2:	07d9      	lsls	r1, r3, #31
 81040c4:	f104 040a 	add.w	r4, r4, #10
 81040c8:	d402      	bmi.n	81040d0 <USB_SetCurrentMode+0x32>
 81040ca:	2cc8      	cmp	r4, #200	@ 0xc8
 81040cc:	d1f5      	bne.n	81040ba <USB_SetCurrentMode+0x1c>
 81040ce:	24c8      	movs	r4, #200	@ 0xc8
 81040d0:	f1a4 03c8 	sub.w	r3, r4, #200	@ 0xc8
 81040d4:	4258      	negs	r0, r3
 81040d6:	4158      	adcs	r0, r3
 81040d8:	bd38      	pop	{r3, r4, r5, pc}
 81040da:	b971      	cbnz	r1, 81040fa <USB_SetCurrentMode+0x5c>
 81040dc:	68c3      	ldr	r3, [r0, #12]
 81040de:	f043 4380 	orr.w	r3, r3, #1073741824	@ 0x40000000
 81040e2:	60c3      	str	r3, [r0, #12]
 81040e4:	200a      	movs	r0, #10
 81040e6:	f7fd f973 	bl	81013d0 <HAL_Delay>
 81040ea:	696b      	ldr	r3, [r5, #20]
 81040ec:	07da      	lsls	r2, r3, #31
 81040ee:	f104 040a 	add.w	r4, r4, #10
 81040f2:	d5ed      	bpl.n	81040d0 <USB_SetCurrentMode+0x32>
 81040f4:	2cc8      	cmp	r4, #200	@ 0xc8
 81040f6:	d1f5      	bne.n	81040e4 <USB_SetCurrentMode+0x46>
 81040f8:	e7e9      	b.n	81040ce <USB_SetCurrentMode+0x30>
 81040fa:	2001      	movs	r0, #1
 81040fc:	e7ec      	b.n	81040d8 <USB_SetCurrentMode+0x3a>

081040fe <USB_FlushTxFifo>:
 81040fe:	b082      	sub	sp, #8
 8104100:	2300      	movs	r3, #0
 8104102:	4602      	mov	r2, r0
 8104104:	9301      	str	r3, [sp, #4]
 8104106:	9b01      	ldr	r3, [sp, #4]
 8104108:	3301      	adds	r3, #1
 810410a:	9301      	str	r3, [sp, #4]
 810410c:	9b01      	ldr	r3, [sp, #4]
 810410e:	f1b3 6f70 	cmp.w	r3, #251658240	@ 0xf000000
 8104112:	d815      	bhi.n	8104140 <USB_FlushTxFifo+0x42>
 8104114:	6913      	ldr	r3, [r2, #16]
 8104116:	2b00      	cmp	r3, #0
 8104118:	daf5      	bge.n	8104106 <USB_FlushTxFifo+0x8>
 810411a:	0189      	lsls	r1, r1, #6
 810411c:	2300      	movs	r3, #0
 810411e:	f041 0120 	orr.w	r1, r1, #32
 8104122:	9301      	str	r3, [sp, #4]
 8104124:	6111      	str	r1, [r2, #16]
 8104126:	9b01      	ldr	r3, [sp, #4]
 8104128:	3301      	adds	r3, #1
 810412a:	9301      	str	r3, [sp, #4]
 810412c:	9b01      	ldr	r3, [sp, #4]
 810412e:	f1b3 6f70 	cmp.w	r3, #251658240	@ 0xf000000
 8104132:	d805      	bhi.n	8104140 <USB_FlushTxFifo+0x42>
 8104134:	6910      	ldr	r0, [r2, #16]
 8104136:	f010 0020 	ands.w	r0, r0, #32
 810413a:	d1f4      	bne.n	8104126 <USB_FlushTxFifo+0x28>
 810413c:	b002      	add	sp, #8
 810413e:	4770      	bx	lr
 8104140:	2003      	movs	r0, #3
 8104142:	e7fb      	b.n	810413c <USB_FlushTxFifo+0x3e>

08104144 <USB_FlushRxFifo>:
 8104144:	b082      	sub	sp, #8
 8104146:	2300      	movs	r3, #0
 8104148:	4602      	mov	r2, r0
 810414a:	9301      	str	r3, [sp, #4]
 810414c:	9b01      	ldr	r3, [sp, #4]
 810414e:	3301      	adds	r3, #1
 8104150:	9301      	str	r3, [sp, #4]
 8104152:	9b01      	ldr	r3, [sp, #4]
 8104154:	f1b3 6f70 	cmp.w	r3, #251658240	@ 0xf000000
 8104158:	d813      	bhi.n	8104182 <USB_FlushRxFifo+0x3e>
 810415a:	6913      	ldr	r3, [r2, #16]
 810415c:	2b00      	cmp	r3, #0
 810415e:	daf5      	bge.n	810414c <USB_FlushRxFifo+0x8>
 8104160:	2300      	movs	r3, #0
 8104162:	9301      	str	r3, [sp, #4]
 8104164:	2310      	movs	r3, #16
 8104166:	6113      	str	r3, [r2, #16]
 8104168:	9b01      	ldr	r3, [sp, #4]
 810416a:	3301      	adds	r3, #1
 810416c:	9301      	str	r3, [sp, #4]
 810416e:	9b01      	ldr	r3, [sp, #4]
 8104170:	f1b3 6f70 	cmp.w	r3, #251658240	@ 0xf000000
 8104174:	d805      	bhi.n	8104182 <USB_FlushRxFifo+0x3e>
 8104176:	6910      	ldr	r0, [r2, #16]
 8104178:	f010 0010 	ands.w	r0, r0, #16
 810417c:	d1f4      	bne.n	8104168 <USB_FlushRxFifo+0x24>
 810417e:	b002      	add	sp, #8
 8104180:	4770      	bx	lr
 8104182:	2003      	movs	r0, #3
 8104184:	e7fb      	b.n	810417e <USB_FlushRxFifo+0x3a>

08104186 <USB_SetDevSpeed>:
 8104186:	f8d0 3800 	ldr.w	r3, [r0, #2048]	@ 0x800
 810418a:	4319      	orrs	r1, r3
 810418c:	f8c0 1800 	str.w	r1, [r0, #2048]	@ 0x800
 8104190:	2000      	movs	r0, #0
 8104192:	4770      	bx	lr

08104194 <USB_DevInit>:
 8104194:	b084      	sub	sp, #16
 8104196:	e92d 43f8 	stmdb	sp!, {r3, r4, r5, r6, r7, r8, r9, lr}
 810419a:	4604      	mov	r4, r0
 810419c:	a809      	add	r0, sp, #36	@ 0x24
 810419e:	e880 000e 	stmia.w	r0, {r1, r2, r3}
 81041a2:	2300      	movs	r3, #0
 81041a4:	f89d 6024 	ldrb.w	r6, [sp, #36]	@ 0x24
 81041a8:	f89d 502e 	ldrb.w	r5, [sp, #46]	@ 0x2e
 81041ac:	4619      	mov	r1, r3
 81041ae:	f103 0240 	add.w	r2, r3, #64	@ 0x40
 81041b2:	eb04 0282 	add.w	r2, r4, r2, lsl #2
 81041b6:	3301      	adds	r3, #1
 81041b8:	2b0f      	cmp	r3, #15
 81041ba:	6051      	str	r1, [r2, #4]
 81041bc:	d1f7      	bne.n	81041ae <USB_DevInit+0x1a>
 81041be:	f504 6700 	add.w	r7, r4, #2048	@ 0x800
 81041c2:	2d00      	cmp	r5, #0
 81041c4:	d16c      	bne.n	81042a0 <USB_DevInit+0x10c>
 81041c6:	687b      	ldr	r3, [r7, #4]
 81041c8:	f043 0302 	orr.w	r3, r3, #2
 81041cc:	607b      	str	r3, [r7, #4]
 81041ce:	6ba3      	ldr	r3, [r4, #56]	@ 0x38
 81041d0:	f423 1300 	bic.w	r3, r3, #2097152	@ 0x200000
 81041d4:	63a3      	str	r3, [r4, #56]	@ 0x38
 81041d6:	6823      	ldr	r3, [r4, #0]
 81041d8:	f043 0340 	orr.w	r3, r3, #64	@ 0x40
 81041dc:	6023      	str	r3, [r4, #0]
 81041de:	6823      	ldr	r3, [r4, #0]
 81041e0:	f043 0380 	orr.w	r3, r3, #128	@ 0x80
 81041e4:	6023      	str	r3, [r4, #0]
 81041e6:	2300      	movs	r3, #0
 81041e8:	f8c4 3e00 	str.w	r3, [r4, #3584]	@ 0xe00
 81041ec:	f89d 3029 	ldrb.w	r3, [sp, #41]	@ 0x29
 81041f0:	2b01      	cmp	r3, #1
 81041f2:	d15c      	bne.n	81042ae <USB_DevInit+0x11a>
 81041f4:	f89d 1027 	ldrb.w	r1, [sp, #39]	@ 0x27
 81041f8:	2900      	cmp	r1, #0
 81041fa:	d156      	bne.n	81042aa <USB_DevInit+0x116>
 81041fc:	4620      	mov	r0, r4
 81041fe:	f7ff ffc2 	bl	8104186 <USB_SetDevSpeed>
 8104202:	2110      	movs	r1, #16
 8104204:	4620      	mov	r0, r4
 8104206:	f7ff ff7a 	bl	81040fe <USB_FlushTxFifo>
 810420a:	4601      	mov	r1, r0
 810420c:	4620      	mov	r0, r4
 810420e:	f7ff ff99 	bl	8104144 <USB_FlushRxFifo>
 8104212:	4308      	orrs	r0, r1
 8104214:	b2c0      	uxtb	r0, r0
 8104216:	2300      	movs	r3, #0
 8104218:	3800      	subs	r0, #0
 810421a:	613b      	str	r3, [r7, #16]
 810421c:	bf18      	it	ne
 810421e:	2001      	movne	r0, #1
 8104220:	617b      	str	r3, [r7, #20]
 8104222:	f504 6210 	add.w	r2, r4, #2304	@ 0x900
 8104226:	61fb      	str	r3, [r7, #28]
 8104228:	4619      	mov	r1, r3
 810422a:	f04f 4c90 	mov.w	ip, #1207959552	@ 0x48000000
 810422e:	f04f 6e00 	mov.w	lr, #134217728	@ 0x8000000
 8104232:	f64f 387f 	movw	r8, #64383	@ 0xfb7f
 8104236:	429e      	cmp	r6, r3
 8104238:	d83b      	bhi.n	81042b2 <USB_DevInit+0x11e>
 810423a:	2200      	movs	r2, #0
 810423c:	f504 6330 	add.w	r3, r4, #2816	@ 0xb00
 8104240:	4611      	mov	r1, r2
 8104242:	f04f 4c90 	mov.w	ip, #1207959552	@ 0x48000000
 8104246:	f04f 6e00 	mov.w	lr, #134217728	@ 0x8000000
 810424a:	f64f 387f 	movw	r8, #64383	@ 0xfb7f
 810424e:	4296      	cmp	r6, r2
 8104250:	d842      	bhi.n	81042d8 <USB_DevInit+0x144>
 8104252:	693b      	ldr	r3, [r7, #16]
 8104254:	f423 7380 	bic.w	r3, r3, #256	@ 0x100
 8104258:	613b      	str	r3, [r7, #16]
 810425a:	2300      	movs	r3, #0
 810425c:	61a3      	str	r3, [r4, #24]
 810425e:	f06f 4380 	mvn.w	r3, #1073741824	@ 0x40000000
 8104262:	6163      	str	r3, [r4, #20]
 8104264:	f89d 3026 	ldrb.w	r3, [sp, #38]	@ 0x26
 8104268:	b91b      	cbnz	r3, 8104272 <USB_DevInit+0xde>
 810426a:	69a3      	ldr	r3, [r4, #24]
 810426c:	f043 0310 	orr.w	r3, r3, #16
 8104270:	61a3      	str	r3, [r4, #24]
 8104272:	69a2      	ldr	r2, [r4, #24]
 8104274:	4b22      	ldr	r3, [pc, #136]	@ (8104300 <USB_DevInit+0x16c>)
 8104276:	4313      	orrs	r3, r2
 8104278:	61a3      	str	r3, [r4, #24]
 810427a:	f89d 302a 	ldrb.w	r3, [sp, #42]	@ 0x2a
 810427e:	b11b      	cbz	r3, 8104288 <USB_DevInit+0xf4>
 8104280:	69a3      	ldr	r3, [r4, #24]
 8104282:	f043 0308 	orr.w	r3, r3, #8
 8104286:	61a3      	str	r3, [r4, #24]
 8104288:	2d01      	cmp	r5, #1
 810428a:	bf01      	itttt	eq
 810428c:	69a3      	ldreq	r3, [r4, #24]
 810428e:	f043 4380 	orreq.w	r3, r3, #1073741824	@ 0x40000000
 8104292:	f043 0304 	orreq.w	r3, r3, #4
 8104296:	61a3      	streq	r3, [r4, #24]
 8104298:	e8bd 43f8 	ldmia.w	sp!, {r3, r4, r5, r6, r7, r8, r9, lr}
 810429c:	b004      	add	sp, #16
 810429e:	4770      	bx	lr
 81042a0:	6ba3      	ldr	r3, [r4, #56]	@ 0x38
 81042a2:	f443 1300 	orr.w	r3, r3, #2097152	@ 0x200000
 81042a6:	63a3      	str	r3, [r4, #56]	@ 0x38
 81042a8:	e79d      	b.n	81041e6 <USB_DevInit+0x52>
 81042aa:	4619      	mov	r1, r3
 81042ac:	e7a6      	b.n	81041fc <USB_DevInit+0x68>
 81042ae:	2103      	movs	r1, #3
 81042b0:	e7a4      	b.n	81041fc <USB_DevInit+0x68>
 81042b2:	f8d2 9000 	ldr.w	r9, [r2]
 81042b6:	f1b9 0f00 	cmp.w	r9, #0
 81042ba:	da0b      	bge.n	81042d4 <USB_DevInit+0x140>
 81042bc:	b93b      	cbnz	r3, 81042ce <USB_DevInit+0x13a>
 81042be:	f8c2 e000 	str.w	lr, [r2]
 81042c2:	6111      	str	r1, [r2, #16]
 81042c4:	3301      	adds	r3, #1
 81042c6:	f8c2 8008 	str.w	r8, [r2, #8]
 81042ca:	3220      	adds	r2, #32
 81042cc:	e7b3      	b.n	8104236 <USB_DevInit+0xa2>
 81042ce:	f8c2 c000 	str.w	ip, [r2]
 81042d2:	e7f6      	b.n	81042c2 <USB_DevInit+0x12e>
 81042d4:	6011      	str	r1, [r2, #0]
 81042d6:	e7f4      	b.n	81042c2 <USB_DevInit+0x12e>
 81042d8:	f8d3 9000 	ldr.w	r9, [r3]
 81042dc:	f1b9 0f00 	cmp.w	r9, #0
 81042e0:	da0b      	bge.n	81042fa <USB_DevInit+0x166>
 81042e2:	b93a      	cbnz	r2, 81042f4 <USB_DevInit+0x160>
 81042e4:	f8c3 e000 	str.w	lr, [r3]
 81042e8:	6119      	str	r1, [r3, #16]
 81042ea:	3201      	adds	r2, #1
 81042ec:	f8c3 8008 	str.w	r8, [r3, #8]
 81042f0:	3320      	adds	r3, #32
 81042f2:	e7ac      	b.n	810424e <USB_DevInit+0xba>
 81042f4:	f8c3 c000 	str.w	ip, [r3]
 81042f8:	e7f6      	b.n	81042e8 <USB_DevInit+0x154>
 81042fa:	6019      	str	r1, [r3, #0]
 81042fc:	e7f4      	b.n	81042e8 <USB_DevInit+0x154>
 81042fe:	bf00      	nop
 8104300:	803c3800 	.word	0x803c3800

08104304 <USB_DevDisconnect>:
 8104304:	f8d0 3e00 	ldr.w	r3, [r0, #3584]	@ 0xe00
 8104308:	f023 0303 	bic.w	r3, r3, #3
 810430c:	f8c0 3e00 	str.w	r3, [r0, #3584]	@ 0xe00
 8104310:	f8d0 3804 	ldr.w	r3, [r0, #2052]	@ 0x804
 8104314:	f043 0302 	orr.w	r3, r3, #2
 8104318:	f8c0 3804 	str.w	r3, [r0, #2052]	@ 0x804
 810431c:	2000      	movs	r0, #0
 810431e:	4770      	bx	lr

08104320 <SysTick_Handler>:
 8104320:	b508      	push	{r3, lr}
 8104322:	f04f 23e0 	mov.w	r3, #3758153728	@ 0xe000e000
 8104326:	691b      	ldr	r3, [r3, #16]
 8104328:	f000 f964 	bl	81045f4 <xTaskGetSchedulerState>
 810432c:	2801      	cmp	r0, #1
 810432e:	d003      	beq.n	8104338 <SysTick_Handler+0x18>
 8104330:	e8bd 4008 	ldmia.w	sp!, {r3, lr}
 8104334:	f000 b866 	b.w	8104404 <xPortSysTickHandler>
 8104338:	bd08      	pop	{r3, pc}

0810433a <vListInsertEnd>:
 810433a:	6843      	ldr	r3, [r0, #4]
 810433c:	604b      	str	r3, [r1, #4]
 810433e:	689a      	ldr	r2, [r3, #8]
 8104340:	608a      	str	r2, [r1, #8]
 8104342:	6051      	str	r1, [r2, #4]
 8104344:	6099      	str	r1, [r3, #8]
 8104346:	6803      	ldr	r3, [r0, #0]
 8104348:	6108      	str	r0, [r1, #16]
 810434a:	3301      	adds	r3, #1
 810434c:	6003      	str	r3, [r0, #0]
 810434e:	4770      	bx	lr

08104350 <uxListRemove>:
 8104350:	e9d0 1201 	ldrd	r1, r2, [r0, #4]
 8104354:	6903      	ldr	r3, [r0, #16]
 8104356:	608a      	str	r2, [r1, #8]
 8104358:	6051      	str	r1, [r2, #4]
 810435a:	6859      	ldr	r1, [r3, #4]
 810435c:	4281      	cmp	r1, r0
 810435e:	bf08      	it	eq
 8104360:	605a      	streq	r2, [r3, #4]
 8104362:	2200      	movs	r2, #0
 8104364:	6102      	str	r2, [r0, #16]
 8104366:	681a      	ldr	r2, [r3, #0]
 8104368:	3a01      	subs	r2, #1
 810436a:	601a      	str	r2, [r3, #0]
 810436c:	6818      	ldr	r0, [r3, #0]
 810436e:	4770      	bx	lr

08104370 <SVC_Handler>:
 8104370:	4b07      	ldr	r3, [pc, #28]	@ (8104390 <pxCurrentTCBConst2>)
 8104372:	6819      	ldr	r1, [r3, #0]
 8104374:	6808      	ldr	r0, [r1, #0]
 8104376:	e8b0 4ff0 	ldmia.w	r0!, {r4, r5, r6, r7, r8, r9, sl, fp, lr}
 810437a:	f380 8809 	msr	PSP, r0
 810437e:	f3bf 8f6f 	isb	sy
 8104382:	f04f 0000 	mov.w	r0, #0
 8104386:	f380 8811 	msr	BASEPRI, r0
 810438a:	4770      	bx	lr
 810438c:	f3af 8000 	nop.w

08104390 <pxCurrentTCBConst2>:
 8104390:	10000e80 	.word	0x10000e80
	...

081043a0 <PendSV_Handler>:
 81043a0:	f3ef 8009 	mrs	r0, PSP
 81043a4:	f3bf 8f6f 	isb	sy
 81043a8:	4b15      	ldr	r3, [pc, #84]	@ (8104400 <pxCurrentTCBConst>)
 81043aa:	681a      	ldr	r2, [r3, #0]
 81043ac:	f01e 0f10 	tst.w	lr, #16
 81043b0:	bf08      	it	eq
 81043b2:	ed20 8a10 	vstmdbeq	r0!, {s16-s31}
 81043b6:	e920 4ff0 	stmdb	r0!, {r4, r5, r6, r7, r8, r9, sl, fp, lr}
 81043ba:	6010      	str	r0, [r2, #0]
 81043bc:	e92d 0009 	stmdb	sp!, {r0, r3}
 81043c0:	f04f 0050 	mov.w	r0, #80	@ 0x50
 81043c4:	f380 8811 	msr	BASEPRI, r0
 81043c8:	f3bf 8f4f 	dsb	sy
 81043cc:	f3bf 8f6f 	isb	sy
 81043d0:	f000 f8d6 	bl	8104580 <vTaskSwitchContext>
 81043d4:	f04f 0000 	mov.w	r0, #0
 81043d8:	f380 8811 	msr	BASEPRI, r0
 81043dc:	bc09      	pop	{r0, r3}
 81043de:	6819      	ldr	r1, [r3, #0]
 81043e0:	6808      	ldr	r0, [r1, #0]
 81043e2:	e8b0 4ff0 	ldmia.w	r0!, {r4, r5, r6, r7, r8, r9, sl, fp, lr}
 81043e6:	f01e 0f10 	tst.w	lr, #16
 81043ea:	bf08      	it	eq
 81043ec:	ecb0 8a10 	vldmiaeq	r0!, {s16-s31}
 81043f0:	f380 8809 	msr	PSP, r0
 81043f4:	f3bf 8f6f 	isb	sy
 81043f8:	4770      	bx	lr
 81043fa:	bf00      	nop
 81043fc:	f3af 8000 	nop.w

08104400 <pxCurrentTCBConst>:
 8104400:	10000e80 	.word	0x10000e80

08104404 <xPortSysTickHandler>:
 8104404:	b508      	push	{r3, lr}
 8104406:	f04f 0350 	mov.w	r3, #80	@ 0x50
 810440a:	f383 8811 	msr	BASEPRI, r3
 810440e:	f3bf 8f6f 	isb	sy
 8104412:	f3bf 8f4f 	dsb	sy
 8104416:	f000 f81d 	bl	8104454 <xTaskIncrementTick>
 810441a:	b128      	cbz	r0, 8104428 <xPortSysTickHandler+0x24>
 810441c:	f04f 23e0 	mov.w	r3, #3758153728	@ 0xe000e000
 8104420:	f04f 5280 	mov.w	r2, #268435456	@ 0x10000000
 8104424:	f8c3 2d04 	str.w	r2, [r3, #3332]	@ 0xd04
 8104428:	2300      	movs	r3, #0
 810442a:	f383 8811 	msr	BASEPRI, r3
 810442e:	bd08      	pop	{r3, pc}

08104430 <prvResetNextTaskUnblockTime>:
 8104430:	4a06      	ldr	r2, [pc, #24]	@ (810444c <prvResetNextTaskUnblockTime+0x1c>)
 8104432:	6813      	ldr	r3, [r2, #0]
 8104434:	6819      	ldr	r1, [r3, #0]
 8104436:	4b06      	ldr	r3, [pc, #24]	@ (8104450 <prvResetNextTaskUnblockTime+0x20>)
 8104438:	b919      	cbnz	r1, 8104442 <prvResetNextTaskUnblockTime+0x12>
 810443a:	f04f 32ff 	mov.w	r2, #4294967295
 810443e:	601a      	str	r2, [r3, #0]
 8104440:	4770      	bx	lr
 8104442:	6812      	ldr	r2, [r2, #0]
 8104444:	68d2      	ldr	r2, [r2, #12]
 8104446:	68d2      	ldr	r2, [r2, #12]
 8104448:	6852      	ldr	r2, [r2, #4]
 810444a:	e7f8      	b.n	810443e <prvResetNextTaskUnblockTime+0xe>
 810444c:	10000a1c 	.word	0x10000a1c
 8104450:	100009fc 	.word	0x100009fc

08104454 <xTaskIncrementTick>:
 8104454:	4b3f      	ldr	r3, [pc, #252]	@ (8104554 <xTaskIncrementTick+0x100>)
 8104456:	681b      	ldr	r3, [r3, #0]
 8104458:	e92d 4ff7 	stmdb	sp!, {r0, r1, r2, r4, r5, r6, r7, r8, r9, sl, fp, lr}
 810445c:	2b00      	cmp	r3, #0
 810445e:	d172      	bne.n	8104546 <xTaskIncrementTick+0xf2>
 8104460:	4b3d      	ldr	r3, [pc, #244]	@ (8104558 <xTaskIncrementTick+0x104>)
 8104462:	681c      	ldr	r4, [r3, #0]
 8104464:	3401      	adds	r4, #1
 8104466:	601c      	str	r4, [r3, #0]
 8104468:	b9bc      	cbnz	r4, 810449a <xTaskIncrementTick+0x46>
 810446a:	4b3c      	ldr	r3, [pc, #240]	@ (810455c <xTaskIncrementTick+0x108>)
 810446c:	681a      	ldr	r2, [r3, #0]
 810446e:	6812      	ldr	r2, [r2, #0]
 8104470:	b142      	cbz	r2, 8104484 <xTaskIncrementTick+0x30>
 8104472:	f04f 0350 	mov.w	r3, #80	@ 0x50
 8104476:	f383 8811 	msr	BASEPRI, r3
 810447a:	f3bf 8f6f 	isb	sy
 810447e:	f3bf 8f4f 	dsb	sy
 8104482:	e7fe      	b.n	8104482 <xTaskIncrementTick+0x2e>
 8104484:	4a36      	ldr	r2, [pc, #216]	@ (8104560 <xTaskIncrementTick+0x10c>)
 8104486:	6819      	ldr	r1, [r3, #0]
 8104488:	6810      	ldr	r0, [r2, #0]
 810448a:	6018      	str	r0, [r3, #0]
 810448c:	6011      	str	r1, [r2, #0]
 810448e:	4a35      	ldr	r2, [pc, #212]	@ (8104564 <xTaskIncrementTick+0x110>)
 8104490:	6813      	ldr	r3, [r2, #0]
 8104492:	3301      	adds	r3, #1
 8104494:	6013      	str	r3, [r2, #0]
 8104496:	f7ff ffcb 	bl	8104430 <prvResetNextTaskUnblockTime>
 810449a:	4d33      	ldr	r5, [pc, #204]	@ (8104568 <xTaskIncrementTick+0x114>)
 810449c:	4e33      	ldr	r6, [pc, #204]	@ (810456c <xTaskIncrementTick+0x118>)
 810449e:	682b      	ldr	r3, [r5, #0]
 81044a0:	4f33      	ldr	r7, [pc, #204]	@ (8104570 <xTaskIncrementTick+0x11c>)
 81044a2:	429c      	cmp	r4, r3
 81044a4:	f04f 0b00 	mov.w	fp, #0
 81044a8:	d212      	bcs.n	81044d0 <xTaskIncrementTick+0x7c>
 81044aa:	683a      	ldr	r2, [r7, #0]
 81044ac:	6ad2      	ldr	r2, [r2, #44]	@ 0x2c
 81044ae:	2114      	movs	r1, #20
 81044b0:	434a      	muls	r2, r1
 81044b2:	58b2      	ldr	r2, [r6, r2]
 81044b4:	2a02      	cmp	r2, #2
 81044b6:	4a2f      	ldr	r2, [pc, #188]	@ (8104574 <xTaskIncrementTick+0x120>)
 81044b8:	6812      	ldr	r2, [r2, #0]
 81044ba:	bf28      	it	cs
 81044bc:	f04f 0b01 	movcs.w	fp, #1
 81044c0:	2a00      	cmp	r2, #0
 81044c2:	bf18      	it	ne
 81044c4:	f04f 0b01 	movne.w	fp, #1
 81044c8:	4658      	mov	r0, fp
 81044ca:	b003      	add	sp, #12
 81044cc:	e8bd 8ff0 	ldmia.w	sp!, {r4, r5, r6, r7, r8, r9, sl, fp, pc}
 81044d0:	f8df 9088 	ldr.w	r9, [pc, #136]	@ 810455c <xTaskIncrementTick+0x108>
 81044d4:	f8df a0a4 	ldr.w	sl, [pc, #164]	@ 810457c <xTaskIncrementTick+0x128>
 81044d8:	f8d9 2000 	ldr.w	r2, [r9]
 81044dc:	6812      	ldr	r2, [r2, #0]
 81044de:	b91a      	cbnz	r2, 81044e8 <xTaskIncrementTick+0x94>
 81044e0:	f04f 32ff 	mov.w	r2, #4294967295
 81044e4:	602a      	str	r2, [r5, #0]
 81044e6:	e7e0      	b.n	81044aa <xTaskIncrementTick+0x56>
 81044e8:	f8d9 2000 	ldr.w	r2, [r9]
 81044ec:	68d2      	ldr	r2, [r2, #12]
 81044ee:	f8d2 800c 	ldr.w	r8, [r2, #12]
 81044f2:	f8d8 1004 	ldr.w	r1, [r8, #4]
 81044f6:	428c      	cmp	r4, r1
 81044f8:	d201      	bcs.n	81044fe <xTaskIncrementTick+0xaa>
 81044fa:	6029      	str	r1, [r5, #0]
 81044fc:	e7d5      	b.n	81044aa <xTaskIncrementTick+0x56>
 81044fe:	f108 0304 	add.w	r3, r8, #4
 8104502:	4618      	mov	r0, r3
 8104504:	9301      	str	r3, [sp, #4]
 8104506:	f7ff ff23 	bl	8104350 <uxListRemove>
 810450a:	f8d8 1028 	ldr.w	r1, [r8, #40]	@ 0x28
 810450e:	b119      	cbz	r1, 8104518 <xTaskIncrementTick+0xc4>
 8104510:	f108 0018 	add.w	r0, r8, #24
 8104514:	f7ff ff1c 	bl	8104350 <uxListRemove>
 8104518:	f8d8 002c 	ldr.w	r0, [r8, #44]	@ 0x2c
 810451c:	f8da 1000 	ldr.w	r1, [sl]
 8104520:	2314      	movs	r3, #20
 8104522:	4288      	cmp	r0, r1
 8104524:	bf88      	it	hi
 8104526:	f8ca 0000 	strhi.w	r0, [sl]
 810452a:	9901      	ldr	r1, [sp, #4]
 810452c:	fb03 6000 	mla	r0, r3, r0, r6
 8104530:	f7ff ff03 	bl	810433a <vListInsertEnd>
 8104534:	6838      	ldr	r0, [r7, #0]
 8104536:	f8d8 102c 	ldr.w	r1, [r8, #44]	@ 0x2c
 810453a:	6ac2      	ldr	r2, [r0, #44]	@ 0x2c
 810453c:	4291      	cmp	r1, r2
 810453e:	bf28      	it	cs
 8104540:	f04f 0b01 	movcs.w	fp, #1
 8104544:	e7c8      	b.n	81044d8 <xTaskIncrementTick+0x84>
 8104546:	4a0c      	ldr	r2, [pc, #48]	@ (8104578 <xTaskIncrementTick+0x124>)
 8104548:	6813      	ldr	r3, [r2, #0]
 810454a:	3301      	adds	r3, #1
 810454c:	6013      	str	r3, [r2, #0]
 810454e:	f04f 0b00 	mov.w	fp, #0
 8104552:	e7b9      	b.n	81044c8 <xTaskIncrementTick+0x74>
 8104554:	100009f8 	.word	0x100009f8
 8104558:	10000a14 	.word	0x10000a14
 810455c:	10000a1c 	.word	0x10000a1c
 8104560:	10000a18 	.word	0x10000a18
 8104564:	10000a00 	.word	0x10000a00
 8104568:	100009fc 	.word	0x100009fc
 810456c:	10000a20 	.word	0x10000a20
 8104570:	10000e80 	.word	0x10000e80
 8104574:	10000a04 	.word	0x10000a04
 8104578:	10000a08 	.word	0x10000a08
 810457c:	10000a10 	.word	0x10000a10

08104580 <vTaskSwitchContext>:
 8104580:	4b17      	ldr	r3, [pc, #92]	@ (81045e0 <vTaskSwitchContext+0x60>)
 8104582:	681a      	ldr	r2, [r3, #0]
 8104584:	4b17      	ldr	r3, [pc, #92]	@ (81045e4 <vTaskSwitchContext+0x64>)
 8104586:	b570      	push	{r4, r5, r6, lr}
 8104588:	b112      	cbz	r2, 8104590 <vTaskSwitchContext+0x10>
 810458a:	2201      	movs	r2, #1
 810458c:	601a      	str	r2, [r3, #0]
 810458e:	bd70      	pop	{r4, r5, r6, pc}
 8104590:	4d15      	ldr	r5, [pc, #84]	@ (81045e8 <vTaskSwitchContext+0x68>)
 8104592:	601a      	str	r2, [r3, #0]
 8104594:	682a      	ldr	r2, [r5, #0]
 8104596:	4915      	ldr	r1, [pc, #84]	@ (81045ec <vTaskSwitchContext+0x6c>)
 8104598:	2614      	movs	r6, #20
 810459a:	fb06 f302 	mul.w	r3, r6, r2
 810459e:	18c8      	adds	r0, r1, r3
 81045a0:	58cc      	ldr	r4, [r1, r3]
 81045a2:	b18c      	cbz	r4, 81045c8 <vTaskSwitchContext+0x48>
 81045a4:	6844      	ldr	r4, [r0, #4]
 81045a6:	3308      	adds	r3, #8
 81045a8:	6864      	ldr	r4, [r4, #4]
 81045aa:	6044      	str	r4, [r0, #4]
 81045ac:	440b      	add	r3, r1
 81045ae:	429c      	cmp	r4, r3
 81045b0:	bf04      	itt	eq
 81045b2:	6863      	ldreq	r3, [r4, #4]
 81045b4:	6043      	streq	r3, [r0, #4]
 81045b6:	2314      	movs	r3, #20
 81045b8:	fb03 1102 	mla	r1, r3, r2, r1
 81045bc:	684b      	ldr	r3, [r1, #4]
 81045be:	68d9      	ldr	r1, [r3, #12]
 81045c0:	4b0b      	ldr	r3, [pc, #44]	@ (81045f0 <vTaskSwitchContext+0x70>)
 81045c2:	6019      	str	r1, [r3, #0]
 81045c4:	602a      	str	r2, [r5, #0]
 81045c6:	e7e2      	b.n	810458e <vTaskSwitchContext+0xe>
 81045c8:	b942      	cbnz	r2, 81045dc <vTaskSwitchContext+0x5c>
 81045ca:	f04f 0350 	mov.w	r3, #80	@ 0x50
 81045ce:	f383 8811 	msr	BASEPRI, r3
 81045d2:	f3bf 8f6f 	isb	sy
 81045d6:	f3bf 8f4f 	dsb	sy
 81045da:	e7fe      	b.n	81045da <vTaskSwitchContext+0x5a>
 81045dc:	3a01      	subs	r2, #1
 81045de:	e7dc      	b.n	810459a <vTaskSwitchContext+0x1a>
 81045e0:	100009f8 	.word	0x100009f8
 81045e4:	10000a04 	.word	0x10000a04
 81045e8:	10000a10 	.word	0x10000a10
 81045ec:	10000a20 	.word	0x10000a20
 81045f0:	10000e80 	.word	0x10000e80

081045f4 <xTaskGetSchedulerState>:
 81045f4:	4b05      	ldr	r3, [pc, #20]	@ (810460c <xTaskGetSchedulerState+0x18>)
 81045f6:	681b      	ldr	r3, [r3, #0]
 81045f8:	b133      	cbz	r3, 8104608 <xTaskGetSchedulerState+0x14>
 81045fa:	4b05      	ldr	r3, [pc, #20]	@ (8104610 <xTaskGetSchedulerState+0x1c>)
 81045fc:	6818      	ldr	r0, [r3, #0]
 81045fe:	fab0 f080 	clz	r0, r0
 8104602:	0940      	lsrs	r0, r0, #5
 8104604:	0040      	lsls	r0, r0, #1
 8104606:	4770      	bx	lr
 8104608:	2001      	movs	r0, #1
 810460a:	4770      	bx	lr
 810460c:	10000a0c 	.word	0x10000a0c
 8104610:	100009f8 	.word	0x100009f8

08104614 <std>:
 8104614:	2300      	movs	r3, #0
 8104616:	b510      	push	{r4, lr}
 8104618:	4604      	mov	r4, r0
 810461a:	e9c0 3300 	strd	r3, r3, [r0]
 810461e:	e9c0 3304 	strd	r3, r3, [r0, #16]
 8104622:	6083      	str	r3, [r0, #8]
 8104624:	8181      	strh	r1, [r0, #12]
 8104626:	6643      	str	r3, [r0, #100]	@ 0x64
 8104628:	81c2      	strh	r2, [r0, #14]
 810462a:	6183      	str	r3, [r0, #24]
 810462c:	4619      	mov	r1, r3
 810462e:	2208      	movs	r2, #8
 8104630:	305c      	adds	r0, #92	@ 0x5c
 8104632:	f000 f9e7 	bl	8104a04 <memset>
 8104636:	4b0d      	ldr	r3, [pc, #52]	@ (810466c <std+0x58>)
 8104638:	6263      	str	r3, [r4, #36]	@ 0x24
 810463a:	4b0d      	ldr	r3, [pc, #52]	@ (8104670 <std+0x5c>)
 810463c:	62a3      	str	r3, [r4, #40]	@ 0x28
 810463e:	4b0d      	ldr	r3, [pc, #52]	@ (8104674 <std+0x60>)
 8104640:	62e3      	str	r3, [r4, #44]	@ 0x2c
 8104642:	4b0d      	ldr	r3, [pc, #52]	@ (8104678 <std+0x64>)
 8104644:	6323      	str	r3, [r4, #48]	@ 0x30
 8104646:	4b0d      	ldr	r3, [pc, #52]	@ (810467c <std+0x68>)
 8104648:	6224      	str	r4, [r4, #32]
 810464a:	429c      	cmp	r4, r3
 810464c:	d006      	beq.n	810465c <std+0x48>
 810464e:	f103 0268 	add.w	r2, r3, #104	@ 0x68
 8104652:	4294      	cmp	r4, r2
 8104654:	d002      	beq.n	810465c <std+0x48>
 8104656:	33d0      	adds	r3, #208	@ 0xd0
 8104658:	429c      	cmp	r4, r3
 810465a:	d105      	bne.n	8104668 <std+0x54>
 810465c:	f104 0058 	add.w	r0, r4, #88	@ 0x58
 8104660:	e8bd 4010 	ldmia.w	sp!, {r4, lr}
 8104664:	f000 ba46 	b.w	8104af4 <__retarget_lock_init_recursive>
 8104668:	bd10      	pop	{r4, pc}
 810466a:	bf00      	nop
 810466c:	08104855 	.word	0x08104855
 8104670:	08104877 	.word	0x08104877
 8104674:	081048af 	.word	0x081048af
 8104678:	081048d3 	.word	0x081048d3
 810467c:	10000e84 	.word	0x10000e84

08104680 <stdio_exit_handler>:
 8104680:	4a02      	ldr	r2, [pc, #8]	@ (810468c <stdio_exit_handler+0xc>)
 8104682:	4903      	ldr	r1, [pc, #12]	@ (8104690 <stdio_exit_handler+0x10>)
 8104684:	4803      	ldr	r0, [pc, #12]	@ (8104694 <stdio_exit_handler+0x14>)
 8104686:	f000 b869 	b.w	810475c <_fwalk_sglue>
 810468a:	bf00      	nop
 810468c:	10000010 	.word	0x10000010
 8104690:	08104df5 	.word	0x08104df5
 8104694:	10000020 	.word	0x10000020

08104698 <cleanup_stdio>:
 8104698:	6841      	ldr	r1, [r0, #4]
 810469a:	4b0c      	ldr	r3, [pc, #48]	@ (81046cc <cleanup_stdio+0x34>)
 810469c:	4299      	cmp	r1, r3
 810469e:	b510      	push	{r4, lr}
 81046a0:	4604      	mov	r4, r0
 81046a2:	d001      	beq.n	81046a8 <cleanup_stdio+0x10>
 81046a4:	f000 fba6 	bl	8104df4 <_fflush_r>
 81046a8:	68a1      	ldr	r1, [r4, #8]
 81046aa:	4b09      	ldr	r3, [pc, #36]	@ (81046d0 <cleanup_stdio+0x38>)
 81046ac:	4299      	cmp	r1, r3
 81046ae:	d002      	beq.n	81046b6 <cleanup_stdio+0x1e>
 81046b0:	4620      	mov	r0, r4
 81046b2:	f000 fb9f 	bl	8104df4 <_fflush_r>
 81046b6:	68e1      	ldr	r1, [r4, #12]
 81046b8:	4b06      	ldr	r3, [pc, #24]	@ (81046d4 <cleanup_stdio+0x3c>)
 81046ba:	4299      	cmp	r1, r3
 81046bc:	d004      	beq.n	81046c8 <cleanup_stdio+0x30>
 81046be:	4620      	mov	r0, r4
 81046c0:	e8bd 4010 	ldmia.w	sp!, {r4, lr}
 81046c4:	f000 bb96 	b.w	8104df4 <_fflush_r>
 81046c8:	bd10      	pop	{r4, pc}
 81046ca:	bf00      	nop
 81046cc:	10000e84 	.word	0x10000e84
 81046d0:	10000eec 	.word	0x10000eec
 81046d4:	10000f54 	.word	0x10000f54

081046d8 <global_stdio_init.part.0>:
 81046d8:	b510      	push	{r4, lr}
 81046da:	4b0b      	ldr	r3, [pc, #44]	@ (8104708 <global_stdio_init.part.0+0x30>)
 81046dc:	4c0b      	ldr	r4, [pc, #44]	@ (810470c <global_stdio_init.part.0+0x34>)
 81046de:	4a0c      	ldr	r2, [pc, #48]	@ (8104710 <global_stdio_init.part.0+0x38>)
 81046e0:	601a      	str	r2, [r3, #0]
 81046e2:	4620      	mov	r0, r4
 81046e4:	2200      	movs	r2, #0
 81046e6:	2104      	movs	r1, #4
 81046e8:	f7ff ff94 	bl	8104614 <std>
 81046ec:	f104 0068 	add.w	r0, r4, #104	@ 0x68
 81046f0:	2201      	movs	r2, #1
 81046f2:	2109      	movs	r1, #9
 81046f4:	f7ff ff8e 	bl	8104614 <std>
 81046f8:	f104 00d0 	add.w	r0, r4, #208	@ 0xd0
 81046fc:	2202      	movs	r2, #2
 81046fe:	e8bd 4010 	ldmia.w	sp!, {r4, lr}
 8104702:	2112      	movs	r1, #18
 8104704:	f7ff bf86 	b.w	8104614 <std>
 8104708:	10000fbc 	.word	0x10000fbc
 810470c:	10000e84 	.word	0x10000e84
 8104710:	08104681 	.word	0x08104681

08104714 <__sfp_lock_acquire>:
 8104714:	4801      	ldr	r0, [pc, #4]	@ (810471c <__sfp_lock_acquire+0x8>)
 8104716:	f000 b9ee 	b.w	8104af6 <__retarget_lock_acquire_recursive>
 810471a:	bf00      	nop
 810471c:	10000fc5 	.word	0x10000fc5

08104720 <__sfp_lock_release>:
 8104720:	4801      	ldr	r0, [pc, #4]	@ (8104728 <__sfp_lock_release+0x8>)
 8104722:	f000 b9e9 	b.w	8104af8 <__retarget_lock_release_recursive>
 8104726:	bf00      	nop
 8104728:	10000fc5 	.word	0x10000fc5

0810472c <__sinit>:
 810472c:	b510      	push	{r4, lr}
 810472e:	4604      	mov	r4, r0
 8104730:	f7ff fff0 	bl	8104714 <__sfp_lock_acquire>
 8104734:	6a23      	ldr	r3, [r4, #32]
 8104736:	b11b      	cbz	r3, 8104740 <__sinit+0x14>
 8104738:	e8bd 4010 	ldmia.w	sp!, {r4, lr}
 810473c:	f7ff bff0 	b.w	8104720 <__sfp_lock_release>
 8104740:	4b04      	ldr	r3, [pc, #16]	@ (8104754 <__sinit+0x28>)
 8104742:	6223      	str	r3, [r4, #32]
 8104744:	4b04      	ldr	r3, [pc, #16]	@ (8104758 <__sinit+0x2c>)
 8104746:	681b      	ldr	r3, [r3, #0]
 8104748:	2b00      	cmp	r3, #0
 810474a:	d1f5      	bne.n	8104738 <__sinit+0xc>
 810474c:	f7ff ffc4 	bl	81046d8 <global_stdio_init.part.0>
 8104750:	e7f2      	b.n	8104738 <__sinit+0xc>
 8104752:	bf00      	nop
 8104754:	08104699 	.word	0x08104699
 8104758:	10000fbc 	.word	0x10000fbc

0810475c <_fwalk_sglue>:
 810475c:	e92d 43f8 	stmdb	sp!, {r3, r4, r5, r6, r7, r8, r9, lr}
 8104760:	4607      	mov	r7, r0
 8104762:	4688      	mov	r8, r1
 8104764:	4614      	mov	r4, r2
 8104766:	2600      	movs	r6, #0
 8104768:	e9d4 9501 	ldrd	r9, r5, [r4, #4]
 810476c:	f1b9 0901 	subs.w	r9, r9, #1
 8104770:	d505      	bpl.n	810477e <_fwalk_sglue+0x22>
 8104772:	6824      	ldr	r4, [r4, #0]
 8104774:	2c00      	cmp	r4, #0
 8104776:	d1f7      	bne.n	8104768 <_fwalk_sglue+0xc>
 8104778:	4630      	mov	r0, r6
 810477a:	e8bd 83f8 	ldmia.w	sp!, {r3, r4, r5, r6, r7, r8, r9, pc}
 810477e:	89ab      	ldrh	r3, [r5, #12]
 8104780:	2b01      	cmp	r3, #1
 8104782:	d907      	bls.n	8104794 <_fwalk_sglue+0x38>
 8104784:	f9b5 300e 	ldrsh.w	r3, [r5, #14]
 8104788:	3301      	adds	r3, #1
 810478a:	d003      	beq.n	8104794 <_fwalk_sglue+0x38>
 810478c:	4629      	mov	r1, r5
 810478e:	4638      	mov	r0, r7
 8104790:	47c0      	blx	r8
 8104792:	4306      	orrs	r6, r0
 8104794:	3568      	adds	r5, #104	@ 0x68
 8104796:	e7e9      	b.n	810476c <_fwalk_sglue+0x10>

08104798 <_puts_r>:
 8104798:	6a03      	ldr	r3, [r0, #32]
 810479a:	b570      	push	{r4, r5, r6, lr}
 810479c:	6884      	ldr	r4, [r0, #8]
 810479e:	4605      	mov	r5, r0
 81047a0:	460e      	mov	r6, r1
 81047a2:	b90b      	cbnz	r3, 81047a8 <_puts_r+0x10>
 81047a4:	f7ff ffc2 	bl	810472c <__sinit>
 81047a8:	6e63      	ldr	r3, [r4, #100]	@ 0x64
 81047aa:	07db      	lsls	r3, r3, #31
 81047ac:	d405      	bmi.n	81047ba <_puts_r+0x22>
 81047ae:	89a3      	ldrh	r3, [r4, #12]
 81047b0:	0598      	lsls	r0, r3, #22
 81047b2:	d402      	bmi.n	81047ba <_puts_r+0x22>
 81047b4:	6da0      	ldr	r0, [r4, #88]	@ 0x58
 81047b6:	f000 f99e 	bl	8104af6 <__retarget_lock_acquire_recursive>
 81047ba:	89a3      	ldrh	r3, [r4, #12]
 81047bc:	0719      	lsls	r1, r3, #28
 81047be:	d502      	bpl.n	81047c6 <_puts_r+0x2e>
 81047c0:	6923      	ldr	r3, [r4, #16]
 81047c2:	2b00      	cmp	r3, #0
 81047c4:	d135      	bne.n	8104832 <_puts_r+0x9a>
 81047c6:	4621      	mov	r1, r4
 81047c8:	4628      	mov	r0, r5
 81047ca:	f000 f8c5 	bl	8104958 <__swsetup_r>
 81047ce:	b380      	cbz	r0, 8104832 <_puts_r+0x9a>
 81047d0:	f04f 35ff 	mov.w	r5, #4294967295
 81047d4:	6e63      	ldr	r3, [r4, #100]	@ 0x64
 81047d6:	07da      	lsls	r2, r3, #31
 81047d8:	d405      	bmi.n	81047e6 <_puts_r+0x4e>
 81047da:	89a3      	ldrh	r3, [r4, #12]
 81047dc:	059b      	lsls	r3, r3, #22
 81047de:	d402      	bmi.n	81047e6 <_puts_r+0x4e>
 81047e0:	6da0      	ldr	r0, [r4, #88]	@ 0x58
 81047e2:	f000 f989 	bl	8104af8 <__retarget_lock_release_recursive>
 81047e6:	4628      	mov	r0, r5
 81047e8:	bd70      	pop	{r4, r5, r6, pc}
 81047ea:	2b00      	cmp	r3, #0
 81047ec:	da04      	bge.n	81047f8 <_puts_r+0x60>
 81047ee:	69a2      	ldr	r2, [r4, #24]
 81047f0:	429a      	cmp	r2, r3
 81047f2:	dc17      	bgt.n	8104824 <_puts_r+0x8c>
 81047f4:	290a      	cmp	r1, #10
 81047f6:	d015      	beq.n	8104824 <_puts_r+0x8c>
 81047f8:	6823      	ldr	r3, [r4, #0]
 81047fa:	1c5a      	adds	r2, r3, #1
 81047fc:	6022      	str	r2, [r4, #0]
 81047fe:	7019      	strb	r1, [r3, #0]
 8104800:	68a3      	ldr	r3, [r4, #8]
 8104802:	f816 1f01 	ldrb.w	r1, [r6, #1]!
 8104806:	3b01      	subs	r3, #1
 8104808:	60a3      	str	r3, [r4, #8]
 810480a:	2900      	cmp	r1, #0
 810480c:	d1ed      	bne.n	81047ea <_puts_r+0x52>
 810480e:	2b00      	cmp	r3, #0
 8104810:	da11      	bge.n	8104836 <_puts_r+0x9e>
 8104812:	4622      	mov	r2, r4
 8104814:	210a      	movs	r1, #10
 8104816:	4628      	mov	r0, r5
 8104818:	f000 f85f 	bl	81048da <__swbuf_r>
 810481c:	3001      	adds	r0, #1
 810481e:	d0d7      	beq.n	81047d0 <_puts_r+0x38>
 8104820:	250a      	movs	r5, #10
 8104822:	e7d7      	b.n	81047d4 <_puts_r+0x3c>
 8104824:	4622      	mov	r2, r4
 8104826:	4628      	mov	r0, r5
 8104828:	f000 f857 	bl	81048da <__swbuf_r>
 810482c:	3001      	adds	r0, #1
 810482e:	d1e7      	bne.n	8104800 <_puts_r+0x68>
 8104830:	e7ce      	b.n	81047d0 <_puts_r+0x38>
 8104832:	3e01      	subs	r6, #1
 8104834:	e7e4      	b.n	8104800 <_puts_r+0x68>
 8104836:	6823      	ldr	r3, [r4, #0]
 8104838:	1c5a      	adds	r2, r3, #1
 810483a:	6022      	str	r2, [r4, #0]
 810483c:	220a      	movs	r2, #10
 810483e:	701a      	strb	r2, [r3, #0]
 8104840:	e7ee      	b.n	8104820 <_puts_r+0x88>
	...

08104844 <puts>:
 8104844:	4b02      	ldr	r3, [pc, #8]	@ (8104850 <puts+0xc>)
 8104846:	4601      	mov	r1, r0
 8104848:	6818      	ldr	r0, [r3, #0]
 810484a:	f7ff bfa5 	b.w	8104798 <_puts_r>
 810484e:	bf00      	nop
 8104850:	1000001c 	.word	0x1000001c

08104854 <__sread>:
 8104854:	b510      	push	{r4, lr}
 8104856:	460c      	mov	r4, r1
 8104858:	f9b1 100e 	ldrsh.w	r1, [r1, #14]
 810485c:	f000 f8fc 	bl	8104a58 <_read_r>
 8104860:	2800      	cmp	r0, #0
 8104862:	bfab      	itete	ge
 8104864:	6d63      	ldrge	r3, [r4, #84]	@ 0x54
 8104866:	89a3      	ldrhlt	r3, [r4, #12]
 8104868:	181b      	addge	r3, r3, r0
 810486a:	f423 5380 	biclt.w	r3, r3, #4096	@ 0x1000
 810486e:	bfac      	ite	ge
 8104870:	6563      	strge	r3, [r4, #84]	@ 0x54
 8104872:	81a3      	strhlt	r3, [r4, #12]
 8104874:	bd10      	pop	{r4, pc}

08104876 <__swrite>:
 8104876:	e92d 41f0 	stmdb	sp!, {r4, r5, r6, r7, r8, lr}
 810487a:	461f      	mov	r7, r3
 810487c:	898b      	ldrh	r3, [r1, #12]
 810487e:	05db      	lsls	r3, r3, #23
 8104880:	4605      	mov	r5, r0
 8104882:	460c      	mov	r4, r1
 8104884:	4616      	mov	r6, r2
 8104886:	d505      	bpl.n	8104894 <__swrite+0x1e>
 8104888:	f9b1 100e 	ldrsh.w	r1, [r1, #14]
 810488c:	2302      	movs	r3, #2
 810488e:	2200      	movs	r2, #0
 8104890:	f000 f8d0 	bl	8104a34 <_lseek_r>
 8104894:	89a3      	ldrh	r3, [r4, #12]
 8104896:	f9b4 100e 	ldrsh.w	r1, [r4, #14]
 810489a:	f423 5380 	bic.w	r3, r3, #4096	@ 0x1000
 810489e:	81a3      	strh	r3, [r4, #12]
 81048a0:	4632      	mov	r2, r6
 81048a2:	463b      	mov	r3, r7
 81048a4:	4628      	mov	r0, r5
 81048a6:	e8bd 41f0 	ldmia.w	sp!, {r4, r5, r6, r7, r8, lr}
 81048aa:	f000 b8e7 	b.w	8104a7c <_write_r>

081048ae <__sseek>:
 81048ae:	b510      	push	{r4, lr}
 81048b0:	460c      	mov	r4, r1
 81048b2:	f9b1 100e 	ldrsh.w	r1, [r1, #14]
 81048b6:	f000 f8bd 	bl	8104a34 <_lseek_r>
 81048ba:	1c43      	adds	r3, r0, #1
 81048bc:	89a3      	ldrh	r3, [r4, #12]
 81048be:	bf15      	itete	ne
 81048c0:	6560      	strne	r0, [r4, #84]	@ 0x54
 81048c2:	f423 5380 	biceq.w	r3, r3, #4096	@ 0x1000
 81048c6:	f443 5380 	orrne.w	r3, r3, #4096	@ 0x1000
 81048ca:	81a3      	strheq	r3, [r4, #12]
 81048cc:	bf18      	it	ne
 81048ce:	81a3      	strhne	r3, [r4, #12]
 81048d0:	bd10      	pop	{r4, pc}

081048d2 <__sclose>:
 81048d2:	f9b1 100e 	ldrsh.w	r1, [r1, #14]
 81048d6:	f000 b89d 	b.w	8104a14 <_close_r>

081048da <__swbuf_r>:
 81048da:	b5f8      	push	{r3, r4, r5, r6, r7, lr}
 81048dc:	460e      	mov	r6, r1
 81048de:	4614      	mov	r4, r2
 81048e0:	4605      	mov	r5, r0
 81048e2:	b118      	cbz	r0, 81048ec <__swbuf_r+0x12>
 81048e4:	6a03      	ldr	r3, [r0, #32]
 81048e6:	b90b      	cbnz	r3, 81048ec <__swbuf_r+0x12>
 81048e8:	f7ff ff20 	bl	810472c <__sinit>
 81048ec:	69a3      	ldr	r3, [r4, #24]
 81048ee:	60a3      	str	r3, [r4, #8]
 81048f0:	89a3      	ldrh	r3, [r4, #12]
 81048f2:	071a      	lsls	r2, r3, #28
 81048f4:	d501      	bpl.n	81048fa <__swbuf_r+0x20>
 81048f6:	6923      	ldr	r3, [r4, #16]
 81048f8:	b943      	cbnz	r3, 810490c <__swbuf_r+0x32>
 81048fa:	4621      	mov	r1, r4
 81048fc:	4628      	mov	r0, r5
 81048fe:	f000 f82b 	bl	8104958 <__swsetup_r>
 8104902:	b118      	cbz	r0, 810490c <__swbuf_r+0x32>
 8104904:	f04f 37ff 	mov.w	r7, #4294967295
 8104908:	4638      	mov	r0, r7
 810490a:	bdf8      	pop	{r3, r4, r5, r6, r7, pc}
 810490c:	6823      	ldr	r3, [r4, #0]
 810490e:	6922      	ldr	r2, [r4, #16]
 8104910:	1a98      	subs	r0, r3, r2
 8104912:	6963      	ldr	r3, [r4, #20]
 8104914:	b2f6      	uxtb	r6, r6
 8104916:	4283      	cmp	r3, r0
 8104918:	4637      	mov	r7, r6
 810491a:	dc05      	bgt.n	8104928 <__swbuf_r+0x4e>
 810491c:	4621      	mov	r1, r4
 810491e:	4628      	mov	r0, r5
 8104920:	f000 fa68 	bl	8104df4 <_fflush_r>
 8104924:	2800      	cmp	r0, #0
 8104926:	d1ed      	bne.n	8104904 <__swbuf_r+0x2a>
 8104928:	68a3      	ldr	r3, [r4, #8]
 810492a:	3b01      	subs	r3, #1
 810492c:	60a3      	str	r3, [r4, #8]
 810492e:	6823      	ldr	r3, [r4, #0]
 8104930:	1c5a      	adds	r2, r3, #1
 8104932:	6022      	str	r2, [r4, #0]
 8104934:	701e      	strb	r6, [r3, #0]
 8104936:	6962      	ldr	r2, [r4, #20]
 8104938:	1c43      	adds	r3, r0, #1
 810493a:	429a      	cmp	r2, r3
 810493c:	d004      	beq.n	8104948 <__swbuf_r+0x6e>
 810493e:	89a3      	ldrh	r3, [r4, #12]
 8104940:	07db      	lsls	r3, r3, #31
 8104942:	d5e1      	bpl.n	8104908 <__swbuf_r+0x2e>
 8104944:	2e0a      	cmp	r6, #10
 8104946:	d1df      	bne.n	8104908 <__swbuf_r+0x2e>
 8104948:	4621      	mov	r1, r4
 810494a:	4628      	mov	r0, r5
 810494c:	f000 fa52 	bl	8104df4 <_fflush_r>
 8104950:	2800      	cmp	r0, #0
 8104952:	d0d9      	beq.n	8104908 <__swbuf_r+0x2e>
 8104954:	e7d6      	b.n	8104904 <__swbuf_r+0x2a>
	...

08104958 <__swsetup_r>:
 8104958:	b538      	push	{r3, r4, r5, lr}
 810495a:	4b29      	ldr	r3, [pc, #164]	@ (8104a00 <__swsetup_r+0xa8>)
 810495c:	4605      	mov	r5, r0
 810495e:	6818      	ldr	r0, [r3, #0]
 8104960:	460c      	mov	r4, r1
 8104962:	b118      	cbz	r0, 810496c <__swsetup_r+0x14>
 8104964:	6a03      	ldr	r3, [r0, #32]
 8104966:	b90b      	cbnz	r3, 810496c <__swsetup_r+0x14>
 8104968:	f7ff fee0 	bl	810472c <__sinit>
 810496c:	f9b4 300c 	ldrsh.w	r3, [r4, #12]
 8104970:	0719      	lsls	r1, r3, #28
 8104972:	d422      	bmi.n	81049ba <__swsetup_r+0x62>
 8104974:	06da      	lsls	r2, r3, #27
 8104976:	d407      	bmi.n	8104988 <__swsetup_r+0x30>
 8104978:	2209      	movs	r2, #9
 810497a:	602a      	str	r2, [r5, #0]
 810497c:	f043 0340 	orr.w	r3, r3, #64	@ 0x40
 8104980:	81a3      	strh	r3, [r4, #12]
 8104982:	f04f 30ff 	mov.w	r0, #4294967295
 8104986:	e033      	b.n	81049f0 <__swsetup_r+0x98>
 8104988:	0758      	lsls	r0, r3, #29
 810498a:	d512      	bpl.n	81049b2 <__swsetup_r+0x5a>
 810498c:	6b61      	ldr	r1, [r4, #52]	@ 0x34
 810498e:	b141      	cbz	r1, 81049a2 <__swsetup_r+0x4a>
 8104990:	f104 0344 	add.w	r3, r4, #68	@ 0x44
 8104994:	4299      	cmp	r1, r3
 8104996:	d002      	beq.n	810499e <__swsetup_r+0x46>
 8104998:	4628      	mov	r0, r5
 810499a:	f000 f8af 	bl	8104afc <_free_r>
 810499e:	2300      	movs	r3, #0
 81049a0:	6363      	str	r3, [r4, #52]	@ 0x34
 81049a2:	89a3      	ldrh	r3, [r4, #12]
 81049a4:	f023 0324 	bic.w	r3, r3, #36	@ 0x24
 81049a8:	81a3      	strh	r3, [r4, #12]
 81049aa:	2300      	movs	r3, #0
 81049ac:	6063      	str	r3, [r4, #4]
 81049ae:	6923      	ldr	r3, [r4, #16]
 81049b0:	6023      	str	r3, [r4, #0]
 81049b2:	89a3      	ldrh	r3, [r4, #12]
 81049b4:	f043 0308 	orr.w	r3, r3, #8
 81049b8:	81a3      	strh	r3, [r4, #12]
 81049ba:	6923      	ldr	r3, [r4, #16]
 81049bc:	b94b      	cbnz	r3, 81049d2 <__swsetup_r+0x7a>
 81049be:	89a3      	ldrh	r3, [r4, #12]
 81049c0:	f403 7320 	and.w	r3, r3, #640	@ 0x280
 81049c4:	f5b3 7f00 	cmp.w	r3, #512	@ 0x200
 81049c8:	d003      	beq.n	81049d2 <__swsetup_r+0x7a>
 81049ca:	4621      	mov	r1, r4
 81049cc:	4628      	mov	r0, r5
 81049ce:	f000 fa5f 	bl	8104e90 <__smakebuf_r>
 81049d2:	f9b4 300c 	ldrsh.w	r3, [r4, #12]
 81049d6:	f013 0201 	ands.w	r2, r3, #1
 81049da:	d00a      	beq.n	81049f2 <__swsetup_r+0x9a>
 81049dc:	2200      	movs	r2, #0
 81049de:	60a2      	str	r2, [r4, #8]
 81049e0:	6962      	ldr	r2, [r4, #20]
 81049e2:	4252      	negs	r2, r2
 81049e4:	61a2      	str	r2, [r4, #24]
 81049e6:	6922      	ldr	r2, [r4, #16]
 81049e8:	b942      	cbnz	r2, 81049fc <__swsetup_r+0xa4>
 81049ea:	f013 0080 	ands.w	r0, r3, #128	@ 0x80
 81049ee:	d1c5      	bne.n	810497c <__swsetup_r+0x24>
 81049f0:	bd38      	pop	{r3, r4, r5, pc}
 81049f2:	0799      	lsls	r1, r3, #30
 81049f4:	bf58      	it	pl
 81049f6:	6962      	ldrpl	r2, [r4, #20]
 81049f8:	60a2      	str	r2, [r4, #8]
 81049fa:	e7f4      	b.n	81049e6 <__swsetup_r+0x8e>
 81049fc:	2000      	movs	r0, #0
 81049fe:	e7f7      	b.n	81049f0 <__swsetup_r+0x98>
 8104a00:	1000001c 	.word	0x1000001c

08104a04 <memset>:
 8104a04:	4402      	add	r2, r0
 8104a06:	4603      	mov	r3, r0
 8104a08:	4293      	cmp	r3, r2
 8104a0a:	d100      	bne.n	8104a0e <memset+0xa>
 8104a0c:	4770      	bx	lr
 8104a0e:	f803 1b01 	strb.w	r1, [r3], #1
 8104a12:	e7f9      	b.n	8104a08 <memset+0x4>

08104a14 <_close_r>:
 8104a14:	b538      	push	{r3, r4, r5, lr}
 8104a16:	4d06      	ldr	r5, [pc, #24]	@ (8104a30 <_close_r+0x1c>)
 8104a18:	2300      	movs	r3, #0
 8104a1a:	4604      	mov	r4, r0
 8104a1c:	4608      	mov	r0, r1
 8104a1e:	602b      	str	r3, [r5, #0]
 8104a20:	f7fc fc20 	bl	8101264 <_close>
 8104a24:	1c43      	adds	r3, r0, #1
 8104a26:	d102      	bne.n	8104a2e <_close_r+0x1a>
 8104a28:	682b      	ldr	r3, [r5, #0]
 8104a2a:	b103      	cbz	r3, 8104a2e <_close_r+0x1a>
 8104a2c:	6023      	str	r3, [r4, #0]
 8104a2e:	bd38      	pop	{r3, r4, r5, pc}
 8104a30:	10000fc0 	.word	0x10000fc0

08104a34 <_lseek_r>:
 8104a34:	b538      	push	{r3, r4, r5, lr}
 8104a36:	4d07      	ldr	r5, [pc, #28]	@ (8104a54 <_lseek_r+0x20>)
 8104a38:	4604      	mov	r4, r0
 8104a3a:	4608      	mov	r0, r1
 8104a3c:	4611      	mov	r1, r2
 8104a3e:	2200      	movs	r2, #0
 8104a40:	602a      	str	r2, [r5, #0]
 8104a42:	461a      	mov	r2, r3
 8104a44:	f7fc fc18 	bl	8101278 <_lseek>
 8104a48:	1c43      	adds	r3, r0, #1
 8104a4a:	d102      	bne.n	8104a52 <_lseek_r+0x1e>
 8104a4c:	682b      	ldr	r3, [r5, #0]
 8104a4e:	b103      	cbz	r3, 8104a52 <_lseek_r+0x1e>
 8104a50:	6023      	str	r3, [r4, #0]
 8104a52:	bd38      	pop	{r3, r4, r5, pc}
 8104a54:	10000fc0 	.word	0x10000fc0

08104a58 <_read_r>:
 8104a58:	b538      	push	{r3, r4, r5, lr}
 8104a5a:	4d07      	ldr	r5, [pc, #28]	@ (8104a78 <_read_r+0x20>)
 8104a5c:	4604      	mov	r4, r0
 8104a5e:	4608      	mov	r0, r1
 8104a60:	4611      	mov	r1, r2
 8104a62:	2200      	movs	r2, #0
 8104a64:	602a      	str	r2, [r5, #0]
 8104a66:	461a      	mov	r2, r3
 8104a68:	f7fc fbe0 	bl	810122c <_read>
 8104a6c:	1c43      	adds	r3, r0, #1
 8104a6e:	d102      	bne.n	8104a76 <_read_r+0x1e>
 8104a70:	682b      	ldr	r3, [r5, #0]
 8104a72:	b103      	cbz	r3, 8104a76 <_read_r+0x1e>
 8104a74:	6023      	str	r3, [r4, #0]
 8104a76:	bd38      	pop	{r3, r4, r5, pc}
 8104a78:	10000fc0 	.word	0x10000fc0

08104a7c <_write_r>:
 8104a7c:	b538      	push	{r3, r4, r5, lr}
 8104a7e:	4d07      	ldr	r5, [pc, #28]	@ (8104a9c <_write_r+0x20>)
 8104a80:	4604      	mov	r4, r0
 8104a82:	4608      	mov	r0, r1
 8104a84:	4611      	mov	r1, r2
 8104a86:	2200      	movs	r2, #0
 8104a88:	602a      	str	r2, [r5, #0]
 8104a8a:	461a      	mov	r2, r3
 8104a8c:	f7fc fbdc 	bl	8101248 <_write>
 8104a90:	1c43      	adds	r3, r0, #1
 8104a92:	d102      	bne.n	8104a9a <_write_r+0x1e>
 8104a94:	682b      	ldr	r3, [r5, #0]
 8104a96:	b103      	cbz	r3, 8104a9a <_write_r+0x1e>
 8104a98:	6023      	str	r3, [r4, #0]
 8104a9a:	bd38      	pop	{r3, r4, r5, pc}
 8104a9c:	10000fc0 	.word	0x10000fc0

08104aa0 <__errno>:
 8104aa0:	4b01      	ldr	r3, [pc, #4]	@ (8104aa8 <__errno+0x8>)
 8104aa2:	6818      	ldr	r0, [r3, #0]
 8104aa4:	4770      	bx	lr
 8104aa6:	bf00      	nop
 8104aa8:	1000001c 	.word	0x1000001c

08104aac <__libc_init_array>:
 8104aac:	b570      	push	{r4, r5, r6, lr}
 8104aae:	4d0d      	ldr	r5, [pc, #52]	@ (8104ae4 <__libc_init_array+0x38>)
 8104ab0:	4c0d      	ldr	r4, [pc, #52]	@ (8104ae8 <__libc_init_array+0x3c>)
 8104ab2:	1b64      	subs	r4, r4, r5
 8104ab4:	10a4      	asrs	r4, r4, #2
 8104ab6:	2600      	movs	r6, #0
 8104ab8:	42a6      	cmp	r6, r4
 8104aba:	d109      	bne.n	8104ad0 <__libc_init_array+0x24>
 8104abc:	4d0b      	ldr	r5, [pc, #44]	@ (8104aec <__libc_init_array+0x40>)
 8104abe:	4c0c      	ldr	r4, [pc, #48]	@ (8104af0 <__libc_init_array+0x44>)
 8104ac0:	f000 fa54 	bl	8104f6c <_init>
 8104ac4:	1b64      	subs	r4, r4, r5
 8104ac6:	10a4      	asrs	r4, r4, #2
 8104ac8:	2600      	movs	r6, #0
 8104aca:	42a6      	cmp	r6, r4
 8104acc:	d105      	bne.n	8104ada <__libc_init_array+0x2e>
 8104ace:	bd70      	pop	{r4, r5, r6, pc}
 8104ad0:	f855 3b04 	ldr.w	r3, [r5], #4
 8104ad4:	4798      	blx	r3
 8104ad6:	3601      	adds	r6, #1
 8104ad8:	e7ee      	b.n	8104ab8 <__libc_init_array+0xc>
 8104ada:	f855 3b04 	ldr.w	r3, [r5], #4
 8104ade:	4798      	blx	r3
 8104ae0:	3601      	adds	r6, #1
 8104ae2:	e7f2      	b.n	8104aca <__libc_init_array+0x1e>
 8104ae4:	08104fa8 	.word	0x08104fa8
 8104ae8:	08104fa8 	.word	0x08104fa8
 8104aec:	08104fa8 	.word	0x08104fa8
 8104af0:	08104fac 	.word	0x08104fac

08104af4 <__retarget_lock_init_recursive>:
 8104af4:	4770      	bx	lr

08104af6 <__retarget_lock_acquire_recursive>:
 8104af6:	4770      	bx	lr

08104af8 <__retarget_lock_release_recursive>:
 8104af8:	4770      	bx	lr
	...

08104afc <_free_r>:
 8104afc:	b538      	push	{r3, r4, r5, lr}
 8104afe:	4605      	mov	r5, r0
 8104b00:	2900      	cmp	r1, #0
 8104b02:	d041      	beq.n	8104b88 <_free_r+0x8c>
 8104b04:	f851 3c04 	ldr.w	r3, [r1, #-4]
 8104b08:	1f0c      	subs	r4, r1, #4
 8104b0a:	2b00      	cmp	r3, #0
 8104b0c:	bfb8      	it	lt
 8104b0e:	18e4      	addlt	r4, r4, r3
 8104b10:	f000 f8e0 	bl	8104cd4 <__malloc_lock>
 8104b14:	4a1d      	ldr	r2, [pc, #116]	@ (8104b8c <_free_r+0x90>)
 8104b16:	6813      	ldr	r3, [r2, #0]
 8104b18:	b933      	cbnz	r3, 8104b28 <_free_r+0x2c>
 8104b1a:	6063      	str	r3, [r4, #4]
 8104b1c:	6014      	str	r4, [r2, #0]
 8104b1e:	4628      	mov	r0, r5
 8104b20:	e8bd 4038 	ldmia.w	sp!, {r3, r4, r5, lr}
 8104b24:	f000 b8dc 	b.w	8104ce0 <__malloc_unlock>
 8104b28:	42a3      	cmp	r3, r4
 8104b2a:	d908      	bls.n	8104b3e <_free_r+0x42>
 8104b2c:	6820      	ldr	r0, [r4, #0]
 8104b2e:	1821      	adds	r1, r4, r0
 8104b30:	428b      	cmp	r3, r1
 8104b32:	bf01      	itttt	eq
 8104b34:	6819      	ldreq	r1, [r3, #0]
 8104b36:	685b      	ldreq	r3, [r3, #4]
 8104b38:	1809      	addeq	r1, r1, r0
 8104b3a:	6021      	streq	r1, [r4, #0]
 8104b3c:	e7ed      	b.n	8104b1a <_free_r+0x1e>
 8104b3e:	461a      	mov	r2, r3
 8104b40:	685b      	ldr	r3, [r3, #4]
 8104b42:	b10b      	cbz	r3, 8104b48 <_free_r+0x4c>
 8104b44:	42a3      	cmp	r3, r4
 8104b46:	d9fa      	bls.n	8104b3e <_free_r+0x42>
 8104b48:	6811      	ldr	r1, [r2, #0]
 8104b4a:	1850      	adds	r0, r2, r1
 8104b4c:	42a0      	cmp	r0, r4
 8104b4e:	d10b      	bne.n	8104b68 <_free_r+0x6c>
 8104b50:	6820      	ldr	r0, [r4, #0]
 8104b52:	4401      	add	r1, r0
 8104b54:	1850      	adds	r0, r2, r1
 8104b56:	4283      	cmp	r3, r0
 8104b58:	6011      	str	r1, [r2, #0]
 8104b5a:	d1e0      	bne.n	8104b1e <_free_r+0x22>
 8104b5c:	6818      	ldr	r0, [r3, #0]
 8104b5e:	685b      	ldr	r3, [r3, #4]
 8104b60:	6053      	str	r3, [r2, #4]
 8104b62:	4408      	add	r0, r1
 8104b64:	6010      	str	r0, [r2, #0]
 8104b66:	e7da      	b.n	8104b1e <_free_r+0x22>
 8104b68:	d902      	bls.n	8104b70 <_free_r+0x74>
 8104b6a:	230c      	movs	r3, #12
 8104b6c:	602b      	str	r3, [r5, #0]
 8104b6e:	e7d6      	b.n	8104b1e <_free_r+0x22>
 8104b70:	6820      	ldr	r0, [r4, #0]
 8104b72:	1821      	adds	r1, r4, r0
 8104b74:	428b      	cmp	r3, r1
 8104b76:	bf04      	itt	eq
 8104b78:	6819      	ldreq	r1, [r3, #0]
 8104b7a:	685b      	ldreq	r3, [r3, #4]
 8104b7c:	6063      	str	r3, [r4, #4]
 8104b7e:	bf04      	itt	eq
 8104b80:	1809      	addeq	r1, r1, r0
 8104b82:	6021      	streq	r1, [r4, #0]
 8104b84:	6054      	str	r4, [r2, #4]
 8104b86:	e7ca      	b.n	8104b1e <_free_r+0x22>
 8104b88:	bd38      	pop	{r3, r4, r5, pc}
 8104b8a:	bf00      	nop
 8104b8c:	10000fcc 	.word	0x10000fcc

08104b90 <sbrk_aligned>:
 8104b90:	b570      	push	{r4, r5, r6, lr}
 8104b92:	4e0f      	ldr	r6, [pc, #60]	@ (8104bd0 <sbrk_aligned+0x40>)
 8104b94:	460c      	mov	r4, r1
 8104b96:	6831      	ldr	r1, [r6, #0]
 8104b98:	4605      	mov	r5, r0
 8104b9a:	b911      	cbnz	r1, 8104ba2 <sbrk_aligned+0x12>
 8104b9c:	f000 f9d6 	bl	8104f4c <_sbrk_r>
 8104ba0:	6030      	str	r0, [r6, #0]
 8104ba2:	4621      	mov	r1, r4
 8104ba4:	4628      	mov	r0, r5
 8104ba6:	f000 f9d1 	bl	8104f4c <_sbrk_r>
 8104baa:	1c43      	adds	r3, r0, #1
 8104bac:	d103      	bne.n	8104bb6 <sbrk_aligned+0x26>
 8104bae:	f04f 34ff 	mov.w	r4, #4294967295
 8104bb2:	4620      	mov	r0, r4
 8104bb4:	bd70      	pop	{r4, r5, r6, pc}
 8104bb6:	1cc4      	adds	r4, r0, #3
 8104bb8:	f024 0403 	bic.w	r4, r4, #3
 8104bbc:	42a0      	cmp	r0, r4
 8104bbe:	d0f8      	beq.n	8104bb2 <sbrk_aligned+0x22>
 8104bc0:	1a21      	subs	r1, r4, r0
 8104bc2:	4628      	mov	r0, r5
 8104bc4:	f000 f9c2 	bl	8104f4c <_sbrk_r>
 8104bc8:	3001      	adds	r0, #1
 8104bca:	d1f2      	bne.n	8104bb2 <sbrk_aligned+0x22>
 8104bcc:	e7ef      	b.n	8104bae <sbrk_aligned+0x1e>
 8104bce:	bf00      	nop
 8104bd0:	10000fc8 	.word	0x10000fc8

08104bd4 <_malloc_r>:
 8104bd4:	e92d 43f8 	stmdb	sp!, {r3, r4, r5, r6, r7, r8, r9, lr}
 8104bd8:	1ccd      	adds	r5, r1, #3
 8104bda:	f025 0503 	bic.w	r5, r5, #3
 8104bde:	3508      	adds	r5, #8
 8104be0:	2d0c      	cmp	r5, #12
 8104be2:	bf38      	it	cc
 8104be4:	250c      	movcc	r5, #12
 8104be6:	2d00      	cmp	r5, #0
 8104be8:	4606      	mov	r6, r0
 8104bea:	db01      	blt.n	8104bf0 <_malloc_r+0x1c>
 8104bec:	42a9      	cmp	r1, r5
 8104bee:	d904      	bls.n	8104bfa <_malloc_r+0x26>
 8104bf0:	230c      	movs	r3, #12
 8104bf2:	6033      	str	r3, [r6, #0]
 8104bf4:	2000      	movs	r0, #0
 8104bf6:	e8bd 83f8 	ldmia.w	sp!, {r3, r4, r5, r6, r7, r8, r9, pc}
 8104bfa:	f8df 80d4 	ldr.w	r8, [pc, #212]	@ 8104cd0 <_malloc_r+0xfc>
 8104bfe:	f000 f869 	bl	8104cd4 <__malloc_lock>
 8104c02:	f8d8 3000 	ldr.w	r3, [r8]
 8104c06:	461c      	mov	r4, r3
 8104c08:	bb44      	cbnz	r4, 8104c5c <_malloc_r+0x88>
 8104c0a:	4629      	mov	r1, r5
 8104c0c:	4630      	mov	r0, r6
 8104c0e:	f7ff ffbf 	bl	8104b90 <sbrk_aligned>
 8104c12:	1c43      	adds	r3, r0, #1
 8104c14:	4604      	mov	r4, r0
 8104c16:	d158      	bne.n	8104cca <_malloc_r+0xf6>
 8104c18:	f8d8 4000 	ldr.w	r4, [r8]
 8104c1c:	4627      	mov	r7, r4
 8104c1e:	2f00      	cmp	r7, #0
 8104c20:	d143      	bne.n	8104caa <_malloc_r+0xd6>
 8104c22:	2c00      	cmp	r4, #0
 8104c24:	d04b      	beq.n	8104cbe <_malloc_r+0xea>
 8104c26:	6823      	ldr	r3, [r4, #0]
 8104c28:	4639      	mov	r1, r7
 8104c2a:	4630      	mov	r0, r6
 8104c2c:	eb04 0903 	add.w	r9, r4, r3
 8104c30:	f000 f98c 	bl	8104f4c <_sbrk_r>
 8104c34:	4581      	cmp	r9, r0
 8104c36:	d142      	bne.n	8104cbe <_malloc_r+0xea>
 8104c38:	6821      	ldr	r1, [r4, #0]
 8104c3a:	1a6d      	subs	r5, r5, r1
 8104c3c:	4629      	mov	r1, r5
 8104c3e:	4630      	mov	r0, r6
 8104c40:	f7ff ffa6 	bl	8104b90 <sbrk_aligned>
 8104c44:	3001      	adds	r0, #1
 8104c46:	d03a      	beq.n	8104cbe <_malloc_r+0xea>
 8104c48:	6823      	ldr	r3, [r4, #0]
 8104c4a:	442b      	add	r3, r5
 8104c4c:	6023      	str	r3, [r4, #0]
 8104c4e:	f8d8 3000 	ldr.w	r3, [r8]
 8104c52:	685a      	ldr	r2, [r3, #4]
 8104c54:	bb62      	cbnz	r2, 8104cb0 <_malloc_r+0xdc>
 8104c56:	f8c8 7000 	str.w	r7, [r8]
 8104c5a:	e00f      	b.n	8104c7c <_malloc_r+0xa8>
 8104c5c:	6822      	ldr	r2, [r4, #0]
 8104c5e:	1b52      	subs	r2, r2, r5
 8104c60:	d420      	bmi.n	8104ca4 <_malloc_r+0xd0>
 8104c62:	2a0b      	cmp	r2, #11
 8104c64:	d917      	bls.n	8104c96 <_malloc_r+0xc2>
 8104c66:	1961      	adds	r1, r4, r5
 8104c68:	42a3      	cmp	r3, r4
 8104c6a:	6025      	str	r5, [r4, #0]
 8104c6c:	bf18      	it	ne
 8104c6e:	6059      	strne	r1, [r3, #4]
 8104c70:	6863      	ldr	r3, [r4, #4]
 8104c72:	bf08      	it	eq
 8104c74:	f8c8 1000 	streq.w	r1, [r8]
 8104c78:	5162      	str	r2, [r4, r5]
 8104c7a:	604b      	str	r3, [r1, #4]
 8104c7c:	4630      	mov	r0, r6
 8104c7e:	f000 f82f 	bl	8104ce0 <__malloc_unlock>
 8104c82:	f104 000b 	add.w	r0, r4, #11
 8104c86:	1d23      	adds	r3, r4, #4
 8104c88:	f020 0007 	bic.w	r0, r0, #7
 8104c8c:	1ac2      	subs	r2, r0, r3
 8104c8e:	bf1c      	itt	ne
 8104c90:	1a1b      	subne	r3, r3, r0
 8104c92:	50a3      	strne	r3, [r4, r2]
 8104c94:	e7af      	b.n	8104bf6 <_malloc_r+0x22>
 8104c96:	6862      	ldr	r2, [r4, #4]
 8104c98:	42a3      	cmp	r3, r4
 8104c9a:	bf0c      	ite	eq
 8104c9c:	f8c8 2000 	streq.w	r2, [r8]
 8104ca0:	605a      	strne	r2, [r3, #4]
 8104ca2:	e7eb      	b.n	8104c7c <_malloc_r+0xa8>
 8104ca4:	4623      	mov	r3, r4
 8104ca6:	6864      	ldr	r4, [r4, #4]
 8104ca8:	e7ae      	b.n	8104c08 <_malloc_r+0x34>
 8104caa:	463c      	mov	r4, r7
 8104cac:	687f      	ldr	r7, [r7, #4]
 8104cae:	e7b6      	b.n	8104c1e <_malloc_r+0x4a>
 8104cb0:	461a      	mov	r2, r3
 8104cb2:	685b      	ldr	r3, [r3, #4]
 8104cb4:	42a3      	cmp	r3, r4
 8104cb6:	d1fb      	bne.n	8104cb0 <_malloc_r+0xdc>
 8104cb8:	2300      	movs	r3, #0
 8104cba:	6053      	str	r3, [r2, #4]
 8104cbc:	e7de      	b.n	8104c7c <_malloc_r+0xa8>
 8104cbe:	230c      	movs	r3, #12
 8104cc0:	6033      	str	r3, [r6, #0]
 8104cc2:	4630      	mov	r0, r6
 8104cc4:	f000 f80c 	bl	8104ce0 <__malloc_unlock>
 8104cc8:	e794      	b.n	8104bf4 <_malloc_r+0x20>
 8104cca:	6005      	str	r5, [r0, #0]
 8104ccc:	e7d6      	b.n	8104c7c <_malloc_r+0xa8>
 8104cce:	bf00      	nop
 8104cd0:	10000fcc 	.word	0x10000fcc

08104cd4 <__malloc_lock>:
 8104cd4:	4801      	ldr	r0, [pc, #4]	@ (8104cdc <__malloc_lock+0x8>)
 8104cd6:	f7ff bf0e 	b.w	8104af6 <__retarget_lock_acquire_recursive>
 8104cda:	bf00      	nop
 8104cdc:	10000fc4 	.word	0x10000fc4

08104ce0 <__malloc_unlock>:
 8104ce0:	4801      	ldr	r0, [pc, #4]	@ (8104ce8 <__malloc_unlock+0x8>)
 8104ce2:	f7ff bf09 	b.w	8104af8 <__retarget_lock_release_recursive>
 8104ce6:	bf00      	nop
 8104ce8:	10000fc4 	.word	0x10000fc4

08104cec <__sflush_r>:
 8104cec:	f9b1 200c 	ldrsh.w	r2, [r1, #12]
 8104cf0:	e92d 41f0 	stmdb	sp!, {r4, r5, r6, r7, r8, lr}
 8104cf4:	0716      	lsls	r6, r2, #28
 8104cf6:	4605      	mov	r5, r0
 8104cf8:	460c      	mov	r4, r1
 8104cfa:	d454      	bmi.n	8104da6 <__sflush_r+0xba>
 8104cfc:	684b      	ldr	r3, [r1, #4]
 8104cfe:	2b00      	cmp	r3, #0
 8104d00:	dc02      	bgt.n	8104d08 <__sflush_r+0x1c>
 8104d02:	6c0b      	ldr	r3, [r1, #64]	@ 0x40
 8104d04:	2b00      	cmp	r3, #0
 8104d06:	dd48      	ble.n	8104d9a <__sflush_r+0xae>
 8104d08:	6ae6      	ldr	r6, [r4, #44]	@ 0x2c
 8104d0a:	2e00      	cmp	r6, #0
 8104d0c:	d045      	beq.n	8104d9a <__sflush_r+0xae>
 8104d0e:	2300      	movs	r3, #0
 8104d10:	f412 5280 	ands.w	r2, r2, #4096	@ 0x1000
 8104d14:	682f      	ldr	r7, [r5, #0]
 8104d16:	6a21      	ldr	r1, [r4, #32]
 8104d18:	602b      	str	r3, [r5, #0]
 8104d1a:	d030      	beq.n	8104d7e <__sflush_r+0x92>
 8104d1c:	6d62      	ldr	r2, [r4, #84]	@ 0x54
 8104d1e:	89a3      	ldrh	r3, [r4, #12]
 8104d20:	0759      	lsls	r1, r3, #29
 8104d22:	d505      	bpl.n	8104d30 <__sflush_r+0x44>
 8104d24:	6863      	ldr	r3, [r4, #4]
 8104d26:	1ad2      	subs	r2, r2, r3
 8104d28:	6b63      	ldr	r3, [r4, #52]	@ 0x34
 8104d2a:	b10b      	cbz	r3, 8104d30 <__sflush_r+0x44>
 8104d2c:	6c23      	ldr	r3, [r4, #64]	@ 0x40
 8104d2e:	1ad2      	subs	r2, r2, r3
 8104d30:	2300      	movs	r3, #0
 8104d32:	6ae6      	ldr	r6, [r4, #44]	@ 0x2c
 8104d34:	6a21      	ldr	r1, [r4, #32]
 8104d36:	4628      	mov	r0, r5
 8104d38:	47b0      	blx	r6
 8104d3a:	1c43      	adds	r3, r0, #1
 8104d3c:	89a3      	ldrh	r3, [r4, #12]
 8104d3e:	d106      	bne.n	8104d4e <__sflush_r+0x62>
 8104d40:	6829      	ldr	r1, [r5, #0]
 8104d42:	291d      	cmp	r1, #29
 8104d44:	d82b      	bhi.n	8104d9e <__sflush_r+0xb2>
 8104d46:	4a2a      	ldr	r2, [pc, #168]	@ (8104df0 <__sflush_r+0x104>)
 8104d48:	40ca      	lsrs	r2, r1
 8104d4a:	07d6      	lsls	r6, r2, #31
 8104d4c:	d527      	bpl.n	8104d9e <__sflush_r+0xb2>
 8104d4e:	2200      	movs	r2, #0
 8104d50:	6062      	str	r2, [r4, #4]
 8104d52:	04d9      	lsls	r1, r3, #19
 8104d54:	6922      	ldr	r2, [r4, #16]
 8104d56:	6022      	str	r2, [r4, #0]
 8104d58:	d504      	bpl.n	8104d64 <__sflush_r+0x78>
 8104d5a:	1c42      	adds	r2, r0, #1
 8104d5c:	d101      	bne.n	8104d62 <__sflush_r+0x76>
 8104d5e:	682b      	ldr	r3, [r5, #0]
 8104d60:	b903      	cbnz	r3, 8104d64 <__sflush_r+0x78>
 8104d62:	6560      	str	r0, [r4, #84]	@ 0x54
 8104d64:	6b61      	ldr	r1, [r4, #52]	@ 0x34
 8104d66:	602f      	str	r7, [r5, #0]
 8104d68:	b1b9      	cbz	r1, 8104d9a <__sflush_r+0xae>
 8104d6a:	f104 0344 	add.w	r3, r4, #68	@ 0x44
 8104d6e:	4299      	cmp	r1, r3
 8104d70:	d002      	beq.n	8104d78 <__sflush_r+0x8c>
 8104d72:	4628      	mov	r0, r5
 8104d74:	f7ff fec2 	bl	8104afc <_free_r>
 8104d78:	2300      	movs	r3, #0
 8104d7a:	6363      	str	r3, [r4, #52]	@ 0x34
 8104d7c:	e00d      	b.n	8104d9a <__sflush_r+0xae>
 8104d7e:	2301      	movs	r3, #1
 8104d80:	4628      	mov	r0, r5
 8104d82:	47b0      	blx	r6
 8104d84:	4602      	mov	r2, r0
 8104d86:	1c50      	adds	r0, r2, #1
 8104d88:	d1c9      	bne.n	8104d1e <__sflush_r+0x32>
 8104d8a:	682b      	ldr	r3, [r5, #0]
 8104d8c:	2b00      	cmp	r3, #0
 8104d8e:	d0c6      	beq.n	8104d1e <__sflush_r+0x32>
 8104d90:	2b1d      	cmp	r3, #29
 8104d92:	d001      	beq.n	8104d98 <__sflush_r+0xac>
 8104d94:	2b16      	cmp	r3, #22
 8104d96:	d11e      	bne.n	8104dd6 <__sflush_r+0xea>
 8104d98:	602f      	str	r7, [r5, #0]
 8104d9a:	2000      	movs	r0, #0
 8104d9c:	e022      	b.n	8104de4 <__sflush_r+0xf8>
 8104d9e:	f043 0340 	orr.w	r3, r3, #64	@ 0x40
 8104da2:	b21b      	sxth	r3, r3
 8104da4:	e01b      	b.n	8104dde <__sflush_r+0xf2>
 8104da6:	690f      	ldr	r7, [r1, #16]
 8104da8:	2f00      	cmp	r7, #0
 8104daa:	d0f6      	beq.n	8104d9a <__sflush_r+0xae>
 8104dac:	0793      	lsls	r3, r2, #30
 8104dae:	680e      	ldr	r6, [r1, #0]
 8104db0:	bf08      	it	eq
 8104db2:	694b      	ldreq	r3, [r1, #20]
 8104db4:	600f      	str	r7, [r1, #0]
 8104db6:	bf18      	it	ne
 8104db8:	2300      	movne	r3, #0
 8104dba:	eba6 0807 	sub.w	r8, r6, r7
 8104dbe:	608b      	str	r3, [r1, #8]
 8104dc0:	f1b8 0f00 	cmp.w	r8, #0
 8104dc4:	dde9      	ble.n	8104d9a <__sflush_r+0xae>
 8104dc6:	6a21      	ldr	r1, [r4, #32]
 8104dc8:	6aa6      	ldr	r6, [r4, #40]	@ 0x28
 8104dca:	4643      	mov	r3, r8
 8104dcc:	463a      	mov	r2, r7
 8104dce:	4628      	mov	r0, r5
 8104dd0:	47b0      	blx	r6
 8104dd2:	2800      	cmp	r0, #0
 8104dd4:	dc08      	bgt.n	8104de8 <__sflush_r+0xfc>
 8104dd6:	f9b4 300c 	ldrsh.w	r3, [r4, #12]
 8104dda:	f043 0340 	orr.w	r3, r3, #64	@ 0x40
 8104dde:	81a3      	strh	r3, [r4, #12]
 8104de0:	f04f 30ff 	mov.w	r0, #4294967295
 8104de4:	e8bd 81f0 	ldmia.w	sp!, {r4, r5, r6, r7, r8, pc}
 8104de8:	4407      	add	r7, r0
 8104dea:	eba8 0800 	sub.w	r8, r8, r0
 8104dee:	e7e7      	b.n	8104dc0 <__sflush_r+0xd4>
 8104df0:	20400001 	.word	0x20400001

08104df4 <_fflush_r>:
 8104df4:	b538      	push	{r3, r4, r5, lr}
 8104df6:	690b      	ldr	r3, [r1, #16]
 8104df8:	4605      	mov	r5, r0
 8104dfa:	460c      	mov	r4, r1
 8104dfc:	b913      	cbnz	r3, 8104e04 <_fflush_r+0x10>
 8104dfe:	2500      	movs	r5, #0
 8104e00:	4628      	mov	r0, r5
 8104e02:	bd38      	pop	{r3, r4, r5, pc}
 8104e04:	b118      	cbz	r0, 8104e0e <_fflush_r+0x1a>
 8104e06:	6a03      	ldr	r3, [r0, #32]
 8104e08:	b90b      	cbnz	r3, 8104e0e <_fflush_r+0x1a>
 8104e0a:	f7ff fc8f 	bl	810472c <__sinit>
 8104e0e:	f9b4 300c 	ldrsh.w	r3, [r4, #12]
 8104e12:	2b00      	cmp	r3, #0
 8104e14:	d0f3      	beq.n	8104dfe <_fflush_r+0xa>
 8104e16:	6e62      	ldr	r2, [r4, #100]	@ 0x64
 8104e18:	07d0      	lsls	r0, r2, #31
 8104e1a:	d404      	bmi.n	8104e26 <_fflush_r+0x32>
 8104e1c:	0599      	lsls	r1, r3, #22
 8104e1e:	d402      	bmi.n	8104e26 <_fflush_r+0x32>
 8104e20:	6da0      	ldr	r0, [r4, #88]	@ 0x58
 8104e22:	f7ff fe68 	bl	8104af6 <__retarget_lock_acquire_recursive>
 8104e26:	4628      	mov	r0, r5
 8104e28:	4621      	mov	r1, r4
 8104e2a:	f7ff ff5f 	bl	8104cec <__sflush_r>
 8104e2e:	6e63      	ldr	r3, [r4, #100]	@ 0x64
 8104e30:	07da      	lsls	r2, r3, #31
 8104e32:	4605      	mov	r5, r0
 8104e34:	d4e4      	bmi.n	8104e00 <_fflush_r+0xc>
 8104e36:	89a3      	ldrh	r3, [r4, #12]
 8104e38:	059b      	lsls	r3, r3, #22
 8104e3a:	d4e1      	bmi.n	8104e00 <_fflush_r+0xc>
 8104e3c:	6da0      	ldr	r0, [r4, #88]	@ 0x58
 8104e3e:	f7ff fe5b 	bl	8104af8 <__retarget_lock_release_recursive>
 8104e42:	e7dd      	b.n	8104e00 <_fflush_r+0xc>

08104e44 <__swhatbuf_r>:
 8104e44:	b570      	push	{r4, r5, r6, lr}
 8104e46:	460c      	mov	r4, r1
 8104e48:	f9b1 100e 	ldrsh.w	r1, [r1, #14]
 8104e4c:	2900      	cmp	r1, #0
 8104e4e:	b096      	sub	sp, #88	@ 0x58
 8104e50:	4615      	mov	r5, r2
 8104e52:	461e      	mov	r6, r3
 8104e54:	da0d      	bge.n	8104e72 <__swhatbuf_r+0x2e>
 8104e56:	89a3      	ldrh	r3, [r4, #12]
 8104e58:	f013 0f80 	tst.w	r3, #128	@ 0x80
 8104e5c:	f04f 0100 	mov.w	r1, #0
 8104e60:	bf14      	ite	ne
 8104e62:	2340      	movne	r3, #64	@ 0x40
 8104e64:	f44f 6380 	moveq.w	r3, #1024	@ 0x400
 8104e68:	2000      	movs	r0, #0
 8104e6a:	6031      	str	r1, [r6, #0]
 8104e6c:	602b      	str	r3, [r5, #0]
 8104e6e:	b016      	add	sp, #88	@ 0x58
 8104e70:	bd70      	pop	{r4, r5, r6, pc}
 8104e72:	466a      	mov	r2, sp
 8104e74:	f000 f848 	bl	8104f08 <_fstat_r>
 8104e78:	2800      	cmp	r0, #0
 8104e7a:	dbec      	blt.n	8104e56 <__swhatbuf_r+0x12>
 8104e7c:	9901      	ldr	r1, [sp, #4]
 8104e7e:	f401 4170 	and.w	r1, r1, #61440	@ 0xf000
 8104e82:	f5a1 5300 	sub.w	r3, r1, #8192	@ 0x2000
 8104e86:	4259      	negs	r1, r3
 8104e88:	4159      	adcs	r1, r3
 8104e8a:	f44f 6380 	mov.w	r3, #1024	@ 0x400
 8104e8e:	e7eb      	b.n	8104e68 <__swhatbuf_r+0x24>

08104e90 <__smakebuf_r>:
 8104e90:	898b      	ldrh	r3, [r1, #12]
 8104e92:	b5f7      	push	{r0, r1, r2, r4, r5, r6, r7, lr}
 8104e94:	079d      	lsls	r5, r3, #30
 8104e96:	4606      	mov	r6, r0
 8104e98:	460c      	mov	r4, r1
 8104e9a:	d507      	bpl.n	8104eac <__smakebuf_r+0x1c>
 8104e9c:	f104 0347 	add.w	r3, r4, #71	@ 0x47
 8104ea0:	6023      	str	r3, [r4, #0]
 8104ea2:	6123      	str	r3, [r4, #16]
 8104ea4:	2301      	movs	r3, #1
 8104ea6:	6163      	str	r3, [r4, #20]
 8104ea8:	b003      	add	sp, #12
 8104eaa:	bdf0      	pop	{r4, r5, r6, r7, pc}
 8104eac:	ab01      	add	r3, sp, #4
 8104eae:	466a      	mov	r2, sp
 8104eb0:	f7ff ffc8 	bl	8104e44 <__swhatbuf_r>
 8104eb4:	9f00      	ldr	r7, [sp, #0]
 8104eb6:	4605      	mov	r5, r0
 8104eb8:	4639      	mov	r1, r7
 8104eba:	4630      	mov	r0, r6
 8104ebc:	f7ff fe8a 	bl	8104bd4 <_malloc_r>
 8104ec0:	b948      	cbnz	r0, 8104ed6 <__smakebuf_r+0x46>
 8104ec2:	f9b4 300c 	ldrsh.w	r3, [r4, #12]
 8104ec6:	059a      	lsls	r2, r3, #22
 8104ec8:	d4ee      	bmi.n	8104ea8 <__smakebuf_r+0x18>
 8104eca:	f023 0303 	bic.w	r3, r3, #3
 8104ece:	f043 0302 	orr.w	r3, r3, #2
 8104ed2:	81a3      	strh	r3, [r4, #12]
 8104ed4:	e7e2      	b.n	8104e9c <__smakebuf_r+0xc>
 8104ed6:	89a3      	ldrh	r3, [r4, #12]
 8104ed8:	6020      	str	r0, [r4, #0]
 8104eda:	f043 0380 	orr.w	r3, r3, #128	@ 0x80
 8104ede:	81a3      	strh	r3, [r4, #12]
 8104ee0:	9b01      	ldr	r3, [sp, #4]
 8104ee2:	e9c4 0704 	strd	r0, r7, [r4, #16]
 8104ee6:	b15b      	cbz	r3, 8104f00 <__smakebuf_r+0x70>
 8104ee8:	f9b4 100e 	ldrsh.w	r1, [r4, #14]
 8104eec:	4630      	mov	r0, r6
 8104eee:	f000 f81d 	bl	8104f2c <_isatty_r>
 8104ef2:	b128      	cbz	r0, 8104f00 <__smakebuf_r+0x70>
 8104ef4:	89a3      	ldrh	r3, [r4, #12]
 8104ef6:	f023 0303 	bic.w	r3, r3, #3
 8104efa:	f043 0301 	orr.w	r3, r3, #1
 8104efe:	81a3      	strh	r3, [r4, #12]
 8104f00:	89a3      	ldrh	r3, [r4, #12]
 8104f02:	431d      	orrs	r5, r3
 8104f04:	81a5      	strh	r5, [r4, #12]
 8104f06:	e7cf      	b.n	8104ea8 <__smakebuf_r+0x18>

08104f08 <_fstat_r>:
 8104f08:	b538      	push	{r3, r4, r5, lr}
 8104f0a:	4d07      	ldr	r5, [pc, #28]	@ (8104f28 <_fstat_r+0x20>)
 8104f0c:	2300      	movs	r3, #0
 8104f0e:	4604      	mov	r4, r0
 8104f10:	4608      	mov	r0, r1
 8104f12:	4611      	mov	r1, r2
 8104f14:	602b      	str	r3, [r5, #0]
 8104f16:	f7fc f9a8 	bl	810126a <_fstat>
 8104f1a:	1c43      	adds	r3, r0, #1
 8104f1c:	d102      	bne.n	8104f24 <_fstat_r+0x1c>
 8104f1e:	682b      	ldr	r3, [r5, #0]
 8104f20:	b103      	cbz	r3, 8104f24 <_fstat_r+0x1c>
 8104f22:	6023      	str	r3, [r4, #0]
 8104f24:	bd38      	pop	{r3, r4, r5, pc}
 8104f26:	bf00      	nop
 8104f28:	10000fc0 	.word	0x10000fc0

08104f2c <_isatty_r>:
 8104f2c:	b538      	push	{r3, r4, r5, lr}
 8104f2e:	4d06      	ldr	r5, [pc, #24]	@ (8104f48 <_isatty_r+0x1c>)
 8104f30:	2300      	movs	r3, #0
 8104f32:	4604      	mov	r4, r0
 8104f34:	4608      	mov	r0, r1
 8104f36:	602b      	str	r3, [r5, #0]
 8104f38:	f7fc f99c 	bl	8101274 <_isatty>
 8104f3c:	1c43      	adds	r3, r0, #1
 8104f3e:	d102      	bne.n	8104f46 <_isatty_r+0x1a>
 8104f40:	682b      	ldr	r3, [r5, #0]
 8104f42:	b103      	cbz	r3, 8104f46 <_isatty_r+0x1a>
 8104f44:	6023      	str	r3, [r4, #0]
 8104f46:	bd38      	pop	{r3, r4, r5, pc}
 8104f48:	10000fc0 	.word	0x10000fc0

08104f4c <_sbrk_r>:
 8104f4c:	b538      	push	{r3, r4, r5, lr}
 8104f4e:	4d06      	ldr	r5, [pc, #24]	@ (8104f68 <_sbrk_r+0x1c>)
 8104f50:	2300      	movs	r3, #0
 8104f52:	4604      	mov	r4, r0
 8104f54:	4608      	mov	r0, r1
 8104f56:	602b      	str	r3, [r5, #0]
 8104f58:	f7fc f990 	bl	810127c <_sbrk>
 8104f5c:	1c43      	adds	r3, r0, #1
 8104f5e:	d102      	bne.n	8104f66 <_sbrk_r+0x1a>
 8104f60:	682b      	ldr	r3, [r5, #0]
 8104f62:	b103      	cbz	r3, 8104f66 <_sbrk_r+0x1a>
 8104f64:	6023      	str	r3, [r4, #0]
 8104f66:	bd38      	pop	{r3, r4, r5, pc}
 8104f68:	10000fc0 	.word	0x10000fc0

08104f6c <_init>:
 8104f6c:	b5f8      	push	{r3, r4, r5, r6, r7, lr}
 8104f6e:	bf00      	nop
 8104f70:	bcf8      	pop	{r3, r4, r5, r6, r7}
 8104f72:	bc08      	pop	{r3}
 8104f74:	469e      	mov	lr, r3
 8104f76:	4770      	bx	lr

08104f78 <_fini>:
 8104f78:	b5f8      	push	{r3, r4, r5, r6, r7, lr}
 8104f7a:	bf00      	nop
 8104f7c:	bcf8      	pop	{r3, r4, r5, r6, r7}
 8104f7e:	bc08      	pop	{r3}
 8104f80:	469e      	mov	lr, r3
 8104f82:	4770      	bx	lr
